ARM GAS  C:\Users\wmd\AppData\Local\Temp\ccygqUpL.s 			page 1


   1              		.cpu cortex-m0
   2              		.fpu softvfp
   3              		.eabi_attribute 20, 1
   4              		.eabi_attribute 21, 1
   5              		.eabi_attribute 23, 3
   6              		.eabi_attribute 24, 1
   7              		.eabi_attribute 25, 1
   8              		.eabi_attribute 26, 1
   9              		.eabi_attribute 30, 6
  10              		.eabi_attribute 34, 0
  11              		.eabi_attribute 18, 4
  12              		.code	16
  13              		.file	"BLE_custom.c"
  14              		.text
  15              	.Ltext0:
  16              		.cfi_sections	.debug_frame
  17              		.section	.rodata
  18              		.align	2
  19              		.type	cyBle_customUuid128, %object
  20              		.size	cyBle_customUuid128, 48
  21              	cyBle_customUuid128:
  22 0000 FB       		.byte	-5
  23 0001 34       		.byte	52
  24 0002 9B       		.byte	-101
  25 0003 5F       		.byte	95
  26 0004 80       		.byte	-128
  27 0005 00       		.byte	0
  28 0006 00       		.byte	0
  29 0007 80       		.byte	-128
  30 0008 00       		.byte	0
  31 0009 10       		.byte	16
  32 000a 00       		.byte	0
  33 000b 00       		.byte	0
  34 000c 00       		.byte	0
  35 000d 00       		.byte	0
  36 000e 00       		.byte	0
  37 000f 00       		.byte	0
  38 0010 FB       		.byte	-5
  39 0011 34       		.byte	52
  40 0012 9B       		.byte	-101
  41 0013 5F       		.byte	95
  42 0014 80       		.byte	-128
  43 0015 00       		.byte	0
  44 0016 00       		.byte	0
  45 0017 80       		.byte	-128
  46 0018 00       		.byte	0
  47 0019 10       		.byte	16
  48 001a 00       		.byte	0
  49 001b 00       		.byte	0
  50 001c 00       		.byte	0
  51 001d 00       		.byte	0
  52 001e 00       		.byte	0
  53 001f 00       		.byte	0
  54 0020 FB       		.byte	-5
  55 0021 34       		.byte	52
  56 0022 9B       		.byte	-101
  57 0023 5F       		.byte	95
ARM GAS  C:\Users\wmd\AppData\Local\Temp\ccygqUpL.s 			page 2


  58 0024 80       		.byte	-128
  59 0025 00       		.byte	0
  60 0026 00       		.byte	0
  61 0027 80       		.byte	-128
  62 0028 00       		.byte	0
  63 0029 10       		.byte	16
  64 002a 00       		.byte	0
  65 002b 00       		.byte	0
  66 002c 00       		.byte	0
  67 002d 00       		.byte	0
  68 002e 00       		.byte	0
  69 002f 00       		.byte	0
  70              		.data
  71              		.align	2
  72              		.type	cyBle_customCDesc, %object
  73              		.size	cyBle_customCDesc, 12
  74              	cyBle_customCDesc:
  75 0000 0000     		.short	0
  76 0002 0000     		.space	2
  77 0004 20000000 		.word	cyBle_customUuid128+32
  78 0008 02       		.byte	2
  79 0009 000000   		.space	3
  80              		.align	2
  81              		.type	cyBle_customCChar, %object
  82              		.size	cyBle_customCChar, 16
  83              	cyBle_customCChar:
  84 000c 0000     		.short	0
  85 000e 0000     		.short	0
  86 0010 10000000 		.word	cyBle_customUuid128+16
  87 0014 02       		.byte	2
  88 0015 00       		.byte	0
  89 0016 01       		.byte	1
  90 0017 00       		.space	1
  91 0018 00000000 		.word	cyBle_customCDesc
  92              		.global	cyBle_customCServ
  93              		.align	2
  94              		.type	cyBle_customCServ, %object
  95              		.size	cyBle_customCServ, 16
  96              	cyBle_customCServ:
  97 001c 0000     		.short	0
  98 001e 0000     		.space	2
  99 0020 00000000 		.word	cyBle_customUuid128
 100 0024 02       		.byte	2
 101 0025 01       		.byte	1
 102 0026 0000     		.space	2
 103 0028 0C000000 		.word	cyBle_customCChar
 104              		.bss
 105              		.align	1
 106              	cyBle_customDisServIndex:
 107 0000 0000     		.space	2
 108              		.align	1
 109              	cyBle_customDisCharIndex:
 110 0002 0000     		.space	2
 111              		.section	.text.CyBle_CustomInit,"ax",%progbits
 112              		.align	2
 113              		.global	CyBle_CustomInit
 114              		.code	16
ARM GAS  C:\Users\wmd\AppData\Local\Temp\ccygqUpL.s 			page 3


 115              		.thumb_func
 116              		.type	CyBle_CustomInit, %function
 117              	CyBle_CustomInit:
 118              	.LFB2:
 119              		.file 1 ".\\Generated_Source\\PSoC4\\BLE_custom.c"
   1:.\Generated_Source\PSoC4/BLE_custom.c **** /*******************************************************************************
   2:.\Generated_Source\PSoC4/BLE_custom.c **** File Name: CYBLE_custom.c
   3:.\Generated_Source\PSoC4/BLE_custom.c **** Version 2.0
   4:.\Generated_Source\PSoC4/BLE_custom.c **** 
   5:.\Generated_Source\PSoC4/BLE_custom.c **** Description:
   6:.\Generated_Source\PSoC4/BLE_custom.c ****  Contains the source code for the Custom Service.
   7:.\Generated_Source\PSoC4/BLE_custom.c **** 
   8:.\Generated_Source\PSoC4/BLE_custom.c **** ********************************************************************************
   9:.\Generated_Source\PSoC4/BLE_custom.c **** Copyright 2014-2015, Cypress Semiconductor Corporation.  All rights reserved.
  10:.\Generated_Source\PSoC4/BLE_custom.c **** You may use this file only in accordance with the license, terms, conditions,
  11:.\Generated_Source\PSoC4/BLE_custom.c **** disclaimers, and limitations in the end user license agreement accompanying
  12:.\Generated_Source\PSoC4/BLE_custom.c **** the software package with which this file was provided.
  13:.\Generated_Source\PSoC4/BLE_custom.c **** *******************************************************************************/
  14:.\Generated_Source\PSoC4/BLE_custom.c **** 
  15:.\Generated_Source\PSoC4/BLE_custom.c **** 
  16:.\Generated_Source\PSoC4/BLE_custom.c **** #include "BLE_eventHandler.h"
  17:.\Generated_Source\PSoC4/BLE_custom.c **** 
  18:.\Generated_Source\PSoC4/BLE_custom.c **** #ifdef CYBLE_CUSTOM_SERVER
  19:.\Generated_Source\PSoC4/BLE_custom.c **** 
  20:.\Generated_Source\PSoC4/BLE_custom.c **** /* If any custom service with custom characterisctis is defined in the
  21:.\Generated_Source\PSoC4/BLE_custom.c **** * customizer's GUI their handles will be present in this array.
  22:.\Generated_Source\PSoC4/BLE_custom.c **** */
  23:.\Generated_Source\PSoC4/BLE_custom.c **** /* This array contains attribute handles for the defined Custom Services and their characteristics 
  24:.\Generated_Source\PSoC4/BLE_custom.c ****    The array index definitions are located in the CYBLE_custom.h file. */
  25:.\Generated_Source\PSoC4/BLE_custom.c **** 
  26:.\Generated_Source\PSoC4/BLE_custom.c **** 
  27:.\Generated_Source\PSoC4/BLE_custom.c **** #endif /* (CYBLE_CUSTOM_SERVER) */
  28:.\Generated_Source\PSoC4/BLE_custom.c **** 
  29:.\Generated_Source\PSoC4/BLE_custom.c **** #ifdef CYBLE_CUSTOM_CLIENT
  30:.\Generated_Source\PSoC4/BLE_custom.c ****     
  31:.\Generated_Source\PSoC4/BLE_custom.c **** static const CYBLE_UUID128_T cyBle_customUuid128[] = {
  32:.\Generated_Source\PSoC4/BLE_custom.c ****     /* Custom Service */
  33:.\Generated_Source\PSoC4/BLE_custom.c ****     { {0xFBu, 0x34u, 0x9Bu, 0x5Fu, 0x80u, 0x00u, 0x00u, 0x80u, 0x00u, 0x10u, 0x00u, 0x00u, 0x00u, 0
  34:.\Generated_Source\PSoC4/BLE_custom.c ****     /* Custom Characteristic */
  35:.\Generated_Source\PSoC4/BLE_custom.c ****     { {0xFBu, 0x34u, 0x9Bu, 0x5Fu, 0x80u, 0x00u, 0x00u, 0x80u, 0x00u, 0x10u, 0x00u, 0x00u, 0x00u, 0
  36:.\Generated_Source\PSoC4/BLE_custom.c ****     /* Custom Descriptor */
  37:.\Generated_Source\PSoC4/BLE_custom.c ****     { {0xFBu, 0x34u, 0x9Bu, 0x5Fu, 0x80u, 0x00u, 0x00u, 0x80u, 0x00u, 0x10u, 0x00u, 0x00u, 0x00u, 0
  38:.\Generated_Source\PSoC4/BLE_custom.c **** };
  39:.\Generated_Source\PSoC4/BLE_custom.c **** 
  40:.\Generated_Source\PSoC4/BLE_custom.c **** static CYBLE_CUSTOMC_DESC_T cyBle_customCDesc[0x01u] = {
  41:.\Generated_Source\PSoC4/BLE_custom.c **** 
  42:.\Generated_Source\PSoC4/BLE_custom.c ****     /* Custom Descriptor */
  43:.\Generated_Source\PSoC4/BLE_custom.c ****     {
  44:.\Generated_Source\PSoC4/BLE_custom.c ****         CYBLE_GATT_INVALID_ATTR_HANDLE_VALUE, /* Descriptor handle */ 
  45:.\Generated_Source\PSoC4/BLE_custom.c ****         (const CYBLE_UUID128_T *) &cyBle_customUuid128[2], /* 128-bit UUID */ 
  46:.\Generated_Source\PSoC4/BLE_custom.c ****         0x02u, /* UUID Format - 16-bit (0x01) or 128-bit (0x02) */ 
  47:.\Generated_Source\PSoC4/BLE_custom.c ****     },
  48:.\Generated_Source\PSoC4/BLE_custom.c **** };
  49:.\Generated_Source\PSoC4/BLE_custom.c **** 
  50:.\Generated_Source\PSoC4/BLE_custom.c **** static CYBLE_CUSTOMC_CHAR_T cyBle_customCChar[0x01u] = {
  51:.\Generated_Source\PSoC4/BLE_custom.c **** 
  52:.\Generated_Source\PSoC4/BLE_custom.c ****     /* Custom Characteristic */
ARM GAS  C:\Users\wmd\AppData\Local\Temp\ccygqUpL.s 			page 4


  53:.\Generated_Source\PSoC4/BLE_custom.c ****     {
  54:.\Generated_Source\PSoC4/BLE_custom.c ****         CYBLE_GATT_INVALID_ATTR_HANDLE_VALUE, /* Characteristic handle */ 
  55:.\Generated_Source\PSoC4/BLE_custom.c ****         CYBLE_GATT_INVALID_ATTR_HANDLE_VALUE, /* Characteristic end handle */ 
  56:.\Generated_Source\PSoC4/BLE_custom.c ****         (const CYBLE_UUID128_T *) &cyBle_customUuid128[1], /* 128-bit UUID */ 
  57:.\Generated_Source\PSoC4/BLE_custom.c ****         0x02u, /* UUID Format - 16-bit (0x01) or 128-bit (0x02) */ 
  58:.\Generated_Source\PSoC4/BLE_custom.c ****         0x00u, /* Characteristic properties */ 
  59:.\Generated_Source\PSoC4/BLE_custom.c ****         0x01u, /* Number of descriptors */ 
  60:.\Generated_Source\PSoC4/BLE_custom.c ****         &cyBle_customCDesc[0], /* Characteristic Descriptors */ 
  61:.\Generated_Source\PSoC4/BLE_custom.c ****     },
  62:.\Generated_Source\PSoC4/BLE_custom.c **** };
  63:.\Generated_Source\PSoC4/BLE_custom.c **** 
  64:.\Generated_Source\PSoC4/BLE_custom.c **** CYBLE_CUSTOMC_T cyBle_customCServ[CYBLE_CUSTOMC_SERVICE_COUNT] = {
  65:.\Generated_Source\PSoC4/BLE_custom.c **** 
  66:.\Generated_Source\PSoC4/BLE_custom.c ****     /* Custom Service */
  67:.\Generated_Source\PSoC4/BLE_custom.c ****     {
  68:.\Generated_Source\PSoC4/BLE_custom.c ****         CYBLE_GATT_INVALID_ATTR_HANDLE_VALUE, /* Custom Service handle */ 
  69:.\Generated_Source\PSoC4/BLE_custom.c ****         (const CYBLE_UUID128_T *) &cyBle_customUuid128[0], /* 128-bit UUID */ 
  70:.\Generated_Source\PSoC4/BLE_custom.c ****         0x02u, /* UUID Format - 16-bit (0x01) or 128-bit (0x02) */ 
  71:.\Generated_Source\PSoC4/BLE_custom.c ****         0x01u, /* Number of characteristics */ 
  72:.\Generated_Source\PSoC4/BLE_custom.c ****         &cyBle_customCChar[0], /* Custom Service Characteristics */ 
  73:.\Generated_Source\PSoC4/BLE_custom.c ****     },
  74:.\Generated_Source\PSoC4/BLE_custom.c **** };
  75:.\Generated_Source\PSoC4/BLE_custom.c **** 
  76:.\Generated_Source\PSoC4/BLE_custom.c **** 
  77:.\Generated_Source\PSoC4/BLE_custom.c **** static uint16 cyBle_customDisServIndex;
  78:.\Generated_Source\PSoC4/BLE_custom.c **** static uint16 cyBle_customDisCharIndex;
  79:.\Generated_Source\PSoC4/BLE_custom.c **** 
  80:.\Generated_Source\PSoC4/BLE_custom.c **** #endif /* (CYBLE_CUSTOM_CLIENT) */
  81:.\Generated_Source\PSoC4/BLE_custom.c **** 
  82:.\Generated_Source\PSoC4/BLE_custom.c **** 
  83:.\Generated_Source\PSoC4/BLE_custom.c **** /****************************************************************************** 
  84:.\Generated_Source\PSoC4/BLE_custom.c **** ##Function Name: CyBle_CustomInit
  85:.\Generated_Source\PSoC4/BLE_custom.c **** *******************************************************************************
  86:.\Generated_Source\PSoC4/BLE_custom.c **** 
  87:.\Generated_Source\PSoC4/BLE_custom.c **** Summary:
  88:.\Generated_Source\PSoC4/BLE_custom.c ****  This function initializes Custom Service.
  89:.\Generated_Source\PSoC4/BLE_custom.c **** 
  90:.\Generated_Source\PSoC4/BLE_custom.c **** Parameters:
  91:.\Generated_Source\PSoC4/BLE_custom.c ****  None
  92:.\Generated_Source\PSoC4/BLE_custom.c **** 
  93:.\Generated_Source\PSoC4/BLE_custom.c **** Return:
  94:.\Generated_Source\PSoC4/BLE_custom.c ****  None
  95:.\Generated_Source\PSoC4/BLE_custom.c **** 
  96:.\Generated_Source\PSoC4/BLE_custom.c **** ******************************************************************************/
  97:.\Generated_Source\PSoC4/BLE_custom.c **** void CyBle_CustomInit(void)
  98:.\Generated_Source\PSoC4/BLE_custom.c **** {
 120              		.loc 1 98 0
 121              		.cfi_startproc
 122 0000 80B5     		push	{r7, lr}
 123              		.cfi_def_cfa_offset 8
 124              		.cfi_offset 7, -8
 125              		.cfi_offset 14, -4
 126 0002 82B0     		sub	sp, sp, #8
 127              		.cfi_def_cfa_offset 16
 128 0004 00AF     		add	r7, sp, #0
 129              		.cfi_def_cfa_register 7
  99:.\Generated_Source\PSoC4/BLE_custom.c ****     
ARM GAS  C:\Users\wmd\AppData\Local\Temp\ccygqUpL.s 			page 5


 100:.\Generated_Source\PSoC4/BLE_custom.c **** #ifdef CYBLE_CUSTOM_CLIENT
 101:.\Generated_Source\PSoC4/BLE_custom.c **** 
 102:.\Generated_Source\PSoC4/BLE_custom.c ****     uint16 locServIndex;
 103:.\Generated_Source\PSoC4/BLE_custom.c ****     uint16 locCharIndex;
 104:.\Generated_Source\PSoC4/BLE_custom.c ****     uint16 locDescIndex;
 105:.\Generated_Source\PSoC4/BLE_custom.c ****     
 106:.\Generated_Source\PSoC4/BLE_custom.c ****     for(locServIndex = 0u; locServIndex < CYBLE_CUSTOMC_SERVICE_COUNT; locServIndex++)
 130              		.loc 1 106 0
 131 0006 BB1D     		add	r3, r7, #6
 132 0008 0022     		mov	r2, #0
 133 000a 1A80     		strh	r2, [r3]
 134 000c 53E0     		b	.L2
 135              	.L7:
 107:.\Generated_Source\PSoC4/BLE_custom.c ****     {
 108:.\Generated_Source\PSoC4/BLE_custom.c ****         for(locCharIndex = 0u; locCharIndex < cyBle_customCServ[locServIndex].charCount; locCharInd
 136              		.loc 1 108 0
 137 000e 3B1D     		add	r3, r7, #4
 138 0010 0022     		mov	r2, #0
 139 0012 1A80     		strh	r2, [r3]
 140 0014 3FE0     		b	.L3
 141              	.L6:
 109:.\Generated_Source\PSoC4/BLE_custom.c ****         {
 110:.\Generated_Source\PSoC4/BLE_custom.c ****             cyBle_customCServ[locServIndex].customServChar[locCharIndex].
 142              		.loc 1 110 0
 143 0016 BB1D     		add	r3, r7, #6
 144 0018 1B88     		ldrh	r3, [r3]
 145 001a 2A4A     		ldr	r2, .L8
 146 001c 1B01     		lsl	r3, r3, #4
 147 001e D318     		add	r3, r2, r3
 148 0020 0833     		add	r3, r3, #8
 149 0022 5A68     		ldr	r2, [r3, #4]
 150 0024 3B1D     		add	r3, r7, #4
 151 0026 1B88     		ldrh	r3, [r3]
 152 0028 1B01     		lsl	r3, r3, #4
 153 002a D318     		add	r3, r2, r3
 111:.\Generated_Source\PSoC4/BLE_custom.c ****                 customServCharHandle = 0u;
 154              		.loc 1 111 0
 155 002c 0022     		mov	r2, #0
 156 002e 1A80     		strh	r2, [r3]
 112:.\Generated_Source\PSoC4/BLE_custom.c ****             
 113:.\Generated_Source\PSoC4/BLE_custom.c ****             for(locDescIndex = 0u; locDescIndex < 
 157              		.loc 1 113 0
 158 0030 BB1C     		add	r3, r7, #2
 159 0032 0022     		mov	r2, #0
 160 0034 1A80     		strh	r2, [r3]
 161 0036 19E0     		b	.L4
 162              	.L5:
 114:.\Generated_Source\PSoC4/BLE_custom.c ****                 cyBle_customCServ[locServIndex].customServChar[locCharIndex].descCount; 
 115:.\Generated_Source\PSoC4/BLE_custom.c ****                     locDescIndex++)
 116:.\Generated_Source\PSoC4/BLE_custom.c ****             {
 117:.\Generated_Source\PSoC4/BLE_custom.c ****                 cyBle_customCServ[locServIndex].customServChar[locCharIndex].
 163              		.loc 1 117 0
 164 0038 BB1D     		add	r3, r7, #6
 165 003a 1B88     		ldrh	r3, [r3]
 166 003c 214A     		ldr	r2, .L8
 167 003e 1B01     		lsl	r3, r3, #4
 168 0040 D318     		add	r3, r2, r3
ARM GAS  C:\Users\wmd\AppData\Local\Temp\ccygqUpL.s 			page 6


 169 0042 0833     		add	r3, r3, #8
 170 0044 5A68     		ldr	r2, [r3, #4]
 171 0046 3B1D     		add	r3, r7, #4
 172 0048 1B88     		ldrh	r3, [r3]
 173 004a 1B01     		lsl	r3, r3, #4
 174 004c D318     		add	r3, r2, r3
 175 004e D968     		ldr	r1, [r3, #12]
 118:.\Generated_Source\PSoC4/BLE_custom.c ****                     customServCharDesc[locDescIndex].descHandle = 0u;
 176              		.loc 1 118 0
 177 0050 BB1C     		add	r3, r7, #2
 178 0052 1A88     		ldrh	r2, [r3]
 179 0054 131C     		mov	r3, r2
 180 0056 5B00     		lsl	r3, r3, #1
 181 0058 9B18     		add	r3, r3, r2
 182 005a 9B00     		lsl	r3, r3, #2
 183 005c CB18     		add	r3, r1, r3
 184 005e 0022     		mov	r2, #0
 185 0060 1A80     		strh	r2, [r3]
 115:.\Generated_Source\PSoC4/BLE_custom.c ****                     locDescIndex++)
 186              		.loc 1 115 0
 187 0062 BB1C     		add	r3, r7, #2
 188 0064 1A88     		ldrh	r2, [r3]
 189 0066 BB1C     		add	r3, r7, #2
 190 0068 0132     		add	r2, r2, #1
 191 006a 1A80     		strh	r2, [r3]
 192              	.L4:
 114:.\Generated_Source\PSoC4/BLE_custom.c ****                 cyBle_customCServ[locServIndex].customServChar[locCharIndex].descCount; 
 193              		.loc 1 114 0 discriminator 1
 194 006c BB1D     		add	r3, r7, #6
 195 006e 1B88     		ldrh	r3, [r3]
 196 0070 144A     		ldr	r2, .L8
 197 0072 1B01     		lsl	r3, r3, #4
 198 0074 D318     		add	r3, r2, r3
 199 0076 0833     		add	r3, r3, #8
 200 0078 5A68     		ldr	r2, [r3, #4]
 201 007a 3B1D     		add	r3, r7, #4
 202 007c 1B88     		ldrh	r3, [r3]
 203 007e 1B01     		lsl	r3, r3, #4
 204 0080 D318     		add	r3, r2, r3
 205 0082 9B7A     		ldrb	r3, [r3, #10]
 113:.\Generated_Source\PSoC4/BLE_custom.c ****             for(locDescIndex = 0u; locDescIndex < 
 206              		.loc 1 113 0 discriminator 1
 207 0084 BA1C     		add	r2, r7, #2
 208 0086 1288     		ldrh	r2, [r2]
 209 0088 9A42     		cmp	r2, r3
 210 008a D5D3     		bcc	.L5
 108:.\Generated_Source\PSoC4/BLE_custom.c ****         for(locCharIndex = 0u; locCharIndex < cyBle_customCServ[locServIndex].charCount; locCharInd
 211              		.loc 1 108 0
 212 008c 3B1D     		add	r3, r7, #4
 213 008e 1A88     		ldrh	r2, [r3]
 214 0090 3B1D     		add	r3, r7, #4
 215 0092 0132     		add	r2, r2, #1
 216 0094 1A80     		strh	r2, [r3]
 217              	.L3:
 108:.\Generated_Source\PSoC4/BLE_custom.c ****         for(locCharIndex = 0u; locCharIndex < cyBle_customCServ[locServIndex].charCount; locCharInd
 218              		.loc 1 108 0 is_stmt 0 discriminator 1
 219 0096 BB1D     		add	r3, r7, #6
ARM GAS  C:\Users\wmd\AppData\Local\Temp\ccygqUpL.s 			page 7


 220 0098 1B88     		ldrh	r3, [r3]
 221 009a 0A4A     		ldr	r2, .L8
 222 009c 1B01     		lsl	r3, r3, #4
 223 009e D318     		add	r3, r2, r3
 224 00a0 0833     		add	r3, r3, #8
 225 00a2 5B78     		ldrb	r3, [r3, #1]
 226 00a4 3A1D     		add	r2, r7, #4
 227 00a6 1288     		ldrh	r2, [r2]
 228 00a8 9A42     		cmp	r2, r3
 229 00aa B4D3     		bcc	.L6
 106:.\Generated_Source\PSoC4/BLE_custom.c ****     for(locServIndex = 0u; locServIndex < CYBLE_CUSTOMC_SERVICE_COUNT; locServIndex++)
 230              		.loc 1 106 0 is_stmt 1
 231 00ac BB1D     		add	r3, r7, #6
 232 00ae 1A88     		ldrh	r2, [r3]
 233 00b0 BB1D     		add	r3, r7, #6
 234 00b2 0132     		add	r2, r2, #1
 235 00b4 1A80     		strh	r2, [r3]
 236              	.L2:
 106:.\Generated_Source\PSoC4/BLE_custom.c ****     for(locServIndex = 0u; locServIndex < CYBLE_CUSTOMC_SERVICE_COUNT; locServIndex++)
 237              		.loc 1 106 0 is_stmt 0 discriminator 1
 238 00b6 BB1D     		add	r3, r7, #6
 239 00b8 1B88     		ldrh	r3, [r3]
 240 00ba 002B     		cmp	r3, #0
 241 00bc A7D0     		beq	.L7
 119:.\Generated_Source\PSoC4/BLE_custom.c ****             }
 120:.\Generated_Source\PSoC4/BLE_custom.c ****         }
 121:.\Generated_Source\PSoC4/BLE_custom.c ****     }
 122:.\Generated_Source\PSoC4/BLE_custom.c **** 
 123:.\Generated_Source\PSoC4/BLE_custom.c **** #endif /* (CYBLE_CUSTOM_CLIENT) */
 124:.\Generated_Source\PSoC4/BLE_custom.c **** }
 242              		.loc 1 124 0 is_stmt 1
 243 00be BD46     		mov	sp, r7
 244 00c0 02B0     		add	sp, sp, #8
 245              		@ sp needed
 246 00c2 80BD     		pop	{r7, pc}
 247              	.L9:
 248              		.align	2
 249              	.L8:
 250 00c4 00000000 		.word	cyBle_customCServ
 251              		.cfi_endproc
 252              	.LFE2:
 253              		.size	CyBle_CustomInit, .-CyBle_CustomInit
 254              		.section	.text.CyBle_CustomcDiscoverServiceEventHandler,"ax",%progbits
 255              		.align	2
 256              		.global	CyBle_CustomcDiscoverServiceEventHandler
 257              		.code	16
 258              		.thumb_func
 259              		.type	CyBle_CustomcDiscoverServiceEventHandler, %function
 260              	CyBle_CustomcDiscoverServiceEventHandler:
 261              	.LFB3:
 125:.\Generated_Source\PSoC4/BLE_custom.c **** 
 126:.\Generated_Source\PSoC4/BLE_custom.c **** 
 127:.\Generated_Source\PSoC4/BLE_custom.c **** #ifdef CYBLE_CUSTOM_CLIENT
 128:.\Generated_Source\PSoC4/BLE_custom.c **** 
 129:.\Generated_Source\PSoC4/BLE_custom.c ****     
 130:.\Generated_Source\PSoC4/BLE_custom.c **** /******************************************************************************
 131:.\Generated_Source\PSoC4/BLE_custom.c **** ##Function Name: CyBle_CustomcDiscoverServiceEventHandler
ARM GAS  C:\Users\wmd\AppData\Local\Temp\ccygqUpL.s 			page 8


 132:.\Generated_Source\PSoC4/BLE_custom.c **** *******************************************************************************
 133:.\Generated_Source\PSoC4/BLE_custom.c **** 
 134:.\Generated_Source\PSoC4/BLE_custom.c **** Summary:
 135:.\Generated_Source\PSoC4/BLE_custom.c ****  This function is called on receiving a Read By Group Response event or 
 136:.\Generated_Source\PSoC4/BLE_custom.c ****  Read response with 128-bit service uuid. 
 137:.\Generated_Source\PSoC4/BLE_custom.c **** 
 138:.\Generated_Source\PSoC4/BLE_custom.c **** Parameters:
 139:.\Generated_Source\PSoC4/BLE_custom.c ****  *discServInfo: The pointer to a service information structure.
 140:.\Generated_Source\PSoC4/BLE_custom.c **** 
 141:.\Generated_Source\PSoC4/BLE_custom.c **** Return:
 142:.\Generated_Source\PSoC4/BLE_custom.c ****  None
 143:.\Generated_Source\PSoC4/BLE_custom.c **** 
 144:.\Generated_Source\PSoC4/BLE_custom.c **** ******************************************************************************/
 145:.\Generated_Source\PSoC4/BLE_custom.c **** void CyBle_CustomcDiscoverServiceEventHandler(const CYBLE_DISC_SRVC128_INFO_T *discServInfo)
 146:.\Generated_Source\PSoC4/BLE_custom.c **** {
 262              		.loc 1 146 0
 263              		.cfi_startproc
 264 0000 80B5     		push	{r7, lr}
 265              		.cfi_def_cfa_offset 8
 266              		.cfi_offset 7, -8
 267              		.cfi_offset 14, -4
 268 0002 84B0     		sub	sp, sp, #16
 269              		.cfi_def_cfa_offset 24
 270 0004 00AF     		add	r7, sp, #0
 271              		.cfi_def_cfa_register 7
 272 0006 7860     		str	r0, [r7, #4]
 147:.\Generated_Source\PSoC4/BLE_custom.c ****     uint16 j;
 148:.\Generated_Source\PSoC4/BLE_custom.c ****     uint8 flag = 0u;
 273              		.loc 1 148 0
 274 0008 3B1C     		mov	r3, r7
 275 000a 0D33     		add	r3, r3, #13
 276 000c 0022     		mov	r2, #0
 277 000e 1A70     		strb	r2, [r3]
 149:.\Generated_Source\PSoC4/BLE_custom.c ****     
 150:.\Generated_Source\PSoC4/BLE_custom.c ****     /* Services with 128 bit UUID have discServInfo->uuid equal to 0 and address to 
 151:.\Generated_Source\PSoC4/BLE_custom.c ****        128 uuid is stored in cyBle_customCServ.uuid128
 152:.\Generated_Source\PSoC4/BLE_custom.c ****     */
 153:.\Generated_Source\PSoC4/BLE_custom.c **** 	for(j = 0u; (j < CYBLE_CUSTOMC_SERVICE_COUNT) && (flag == 0u); j++)
 278              		.loc 1 153 0
 279 0010 3B1C     		mov	r3, r7
 280 0012 0E33     		add	r3, r3, #14
 281 0014 0022     		mov	r2, #0
 282 0016 1A80     		strh	r2, [r3]
 283 0018 48E0     		b	.L11
 284              	.L14:
 154:.\Generated_Source\PSoC4/BLE_custom.c ****     {
 155:.\Generated_Source\PSoC4/BLE_custom.c ****         if(cyBle_customCServ[j].uuidFormat == CYBLE_GATT_128_BIT_UUID_FORMAT)
 285              		.loc 1 155 0
 286 001a 3B1C     		mov	r3, r7
 287 001c 0E33     		add	r3, r3, #14
 288 001e 1B88     		ldrh	r3, [r3]
 289 0020 294A     		ldr	r2, .L15
 290 0022 1B01     		lsl	r3, r3, #4
 291 0024 D318     		add	r3, r2, r3
 292 0026 0833     		add	r3, r3, #8
 293 0028 1B78     		ldrb	r3, [r3]
 294 002a 022B     		cmp	r3, #2
ARM GAS  C:\Users\wmd\AppData\Local\Temp\ccygqUpL.s 			page 9


 295 002c 37D1     		bne	.L12
 156:.\Generated_Source\PSoC4/BLE_custom.c ****         {
 157:.\Generated_Source\PSoC4/BLE_custom.c ****             if(memcmp(cyBle_customCServ[j].uuid, &discServInfo->uuid.uuid128, CYBLE_GATT_128_BIT_UU
 296              		.loc 1 157 0
 297 002e 3B1C     		mov	r3, r7
 298 0030 0E33     		add	r3, r3, #14
 299 0032 1B88     		ldrh	r3, [r3]
 300 0034 244A     		ldr	r2, .L15
 301 0036 1B01     		lsl	r3, r3, #4
 302 0038 D318     		add	r3, r2, r3
 303 003a 5A68     		ldr	r2, [r3, #4]
 304 003c 7B68     		ldr	r3, [r7, #4]
 305 003e 0433     		add	r3, r3, #4
 306 0040 101C     		mov	r0, r2
 307 0042 191C     		mov	r1, r3
 308 0044 1022     		mov	r2, #16
 309 0046 FFF7FEFF 		bl	memcmp
 310 004a 031C     		mov	r3, r0
 311 004c 002B     		cmp	r3, #0
 312 004e 26D1     		bne	.L12
 158:.\Generated_Source\PSoC4/BLE_custom.c ****             {
 159:.\Generated_Source\PSoC4/BLE_custom.c ****                 if(cyBle_serverInfo[j + (uint16)CYBLE_SRVI_CUSTOMS].range.startHandle == 
 313              		.loc 1 159 0
 314 0050 3B1C     		mov	r3, r7
 315 0052 0E33     		add	r3, r3, #14
 316 0054 1B88     		ldrh	r3, [r3]
 317 0056 9A1C     		add	r2, r3, #2
 318 0058 1C49     		ldr	r1, .L15+4
 319 005a 131C     		mov	r3, r2
 320 005c 5B00     		lsl	r3, r3, #1
 321 005e 9B18     		add	r3, r3, r2
 322 0060 5B00     		lsl	r3, r3, #1
 323 0062 5B5A     		ldrh	r3, [r3, r1]
 324 0064 002B     		cmp	r3, #0
 325 0066 1AD1     		bne	.L12
 160:.\Generated_Source\PSoC4/BLE_custom.c ****                    CYBLE_GATT_INVALID_ATTR_HANDLE_VALUE)
 161:.\Generated_Source\PSoC4/BLE_custom.c ****                 {
 162:.\Generated_Source\PSoC4/BLE_custom.c ****                     cyBle_serverInfo[j + (uint16)CYBLE_SRVI_CUSTOMS].range = discServInfo->range;
 326              		.loc 1 162 0
 327 0068 3B1C     		mov	r3, r7
 328 006a 0E33     		add	r3, r3, #14
 329 006c 1B88     		ldrh	r3, [r3]
 330 006e 9A1C     		add	r2, r3, #2
 331 0070 1649     		ldr	r1, .L15+4
 332 0072 131C     		mov	r3, r2
 333 0074 5B00     		lsl	r3, r3, #1
 334 0076 9B18     		add	r3, r3, r2
 335 0078 5B00     		lsl	r3, r3, #1
 336 007a 7A68     		ldr	r2, [r7, #4]
 337 007c C918     		add	r1, r1, r3
 338 007e 0423     		mov	r3, #4
 339 0080 081C     		mov	r0, r1
 340 0082 111C     		mov	r1, r2
 341 0084 1A1C     		mov	r2, r3
 342 0086 FFF7FEFF 		bl	memcpy
 163:.\Generated_Source\PSoC4/BLE_custom.c ****                     cyBle_disCount++;
 343              		.loc 1 163 0
ARM GAS  C:\Users\wmd\AppData\Local\Temp\ccygqUpL.s 			page 10


 344 008a 114B     		ldr	r3, .L15+8
 345 008c 1B78     		ldrb	r3, [r3]
 346 008e 0133     		add	r3, r3, #1
 347 0090 DAB2     		uxtb	r2, r3
 348 0092 0F4B     		ldr	r3, .L15+8
 349 0094 1A70     		strb	r2, [r3]
 164:.\Generated_Source\PSoC4/BLE_custom.c ****                     flag = 1u;
 350              		.loc 1 164 0
 351 0096 3B1C     		mov	r3, r7
 352 0098 0D33     		add	r3, r3, #13
 353 009a 0122     		mov	r2, #1
 354 009c 1A70     		strb	r2, [r3]
 355              	.L12:
 153:.\Generated_Source\PSoC4/BLE_custom.c **** 	for(j = 0u; (j < CYBLE_CUSTOMC_SERVICE_COUNT) && (flag == 0u); j++)
 356              		.loc 1 153 0
 357 009e 3B1C     		mov	r3, r7
 358 00a0 0E33     		add	r3, r3, #14
 359 00a2 1A88     		ldrh	r2, [r3]
 360 00a4 3B1C     		mov	r3, r7
 361 00a6 0E33     		add	r3, r3, #14
 362 00a8 0132     		add	r2, r2, #1
 363 00aa 1A80     		strh	r2, [r3]
 364              	.L11:
 153:.\Generated_Source\PSoC4/BLE_custom.c **** 	for(j = 0u; (j < CYBLE_CUSTOMC_SERVICE_COUNT) && (flag == 0u); j++)
 365              		.loc 1 153 0 is_stmt 0 discriminator 1
 366 00ac 3B1C     		mov	r3, r7
 367 00ae 0E33     		add	r3, r3, #14
 368 00b0 1B88     		ldrh	r3, [r3]
 369 00b2 002B     		cmp	r3, #0
 370 00b4 04D1     		bne	.L10
 153:.\Generated_Source\PSoC4/BLE_custom.c **** 	for(j = 0u; (j < CYBLE_CUSTOMC_SERVICE_COUNT) && (flag == 0u); j++)
 371              		.loc 1 153 0 discriminator 2
 372 00b6 3B1C     		mov	r3, r7
 373 00b8 0D33     		add	r3, r3, #13
 374 00ba 1B78     		ldrb	r3, [r3]
 375 00bc 002B     		cmp	r3, #0
 376 00be ACD0     		beq	.L14
 377              	.L10:
 165:.\Generated_Source\PSoC4/BLE_custom.c ****                 }
 166:.\Generated_Source\PSoC4/BLE_custom.c ****             }
 167:.\Generated_Source\PSoC4/BLE_custom.c ****         }
 168:.\Generated_Source\PSoC4/BLE_custom.c ****     }
 169:.\Generated_Source\PSoC4/BLE_custom.c **** }
 378              		.loc 1 169 0 is_stmt 1
 379 00c0 BD46     		mov	sp, r7
 380 00c2 04B0     		add	sp, sp, #16
 381              		@ sp needed
 382 00c4 80BD     		pop	{r7, pc}
 383              	.L16:
 384 00c6 C046     		.align	2
 385              	.L15:
 386 00c8 00000000 		.word	cyBle_customCServ
 387 00cc 00000000 		.word	cyBle_serverInfo
 388 00d0 00000000 		.word	cyBle_disCount
 389              		.cfi_endproc
 390              	.LFE3:
 391              		.size	CyBle_CustomcDiscoverServiceEventHandler, .-CyBle_CustomcDiscoverServiceEventHandler
ARM GAS  C:\Users\wmd\AppData\Local\Temp\ccygqUpL.s 			page 11


 392              		.section	.text.CyBle_CustomcDiscoverCharacteristicsEventHandler,"ax",%progbits
 393              		.align	2
 394              		.global	CyBle_CustomcDiscoverCharacteristicsEventHandler
 395              		.code	16
 396              		.thumb_func
 397              		.type	CyBle_CustomcDiscoverCharacteristicsEventHandler, %function
 398              	CyBle_CustomcDiscoverCharacteristicsEventHandler:
 399              	.LFB4:
 170:.\Generated_Source\PSoC4/BLE_custom.c **** 
 171:.\Generated_Source\PSoC4/BLE_custom.c **** 
 172:.\Generated_Source\PSoC4/BLE_custom.c **** /******************************************************************************
 173:.\Generated_Source\PSoC4/BLE_custom.c **** ##Function Name: CyBle_CustomcDiscoverCharacteristicsEventHandler
 174:.\Generated_Source\PSoC4/BLE_custom.c **** *******************************************************************************
 175:.\Generated_Source\PSoC4/BLE_custom.c **** 
 176:.\Generated_Source\PSoC4/BLE_custom.c **** Summary:
 177:.\Generated_Source\PSoC4/BLE_custom.c ****  This function is called on receiving a CYBLE_EVT_GATTC_READ_BY_TYPE_RSP
 178:.\Generated_Source\PSoC4/BLE_custom.c ****  event. Based on the service index, an appropriate data structure is populated
 179:.\Generated_Source\PSoC4/BLE_custom.c ****  using the data received as part of the callback.
 180:.\Generated_Source\PSoC4/BLE_custom.c **** 
 181:.\Generated_Source\PSoC4/BLE_custom.c **** Parameters:
 182:.\Generated_Source\PSoC4/BLE_custom.c ****  *discCharInfo: The pointer to a characteristic information structure.
 183:.\Generated_Source\PSoC4/BLE_custom.c ****  discoveryService: The index of the service instance.
 184:.\Generated_Source\PSoC4/BLE_custom.c **** 
 185:.\Generated_Source\PSoC4/BLE_custom.c **** Return:
 186:.\Generated_Source\PSoC4/BLE_custom.c ****  None
 187:.\Generated_Source\PSoC4/BLE_custom.c **** 
 188:.\Generated_Source\PSoC4/BLE_custom.c **** ******************************************************************************/
 189:.\Generated_Source\PSoC4/BLE_custom.c **** void CyBle_CustomcDiscoverCharacteristicsEventHandler(uint16 discoveryService, const CYBLE_DISC_CHA
 190:.\Generated_Source\PSoC4/BLE_custom.c **** {
 400              		.loc 1 190 0
 401              		.cfi_startproc
 402 0000 80B5     		push	{r7, lr}
 403              		.cfi_def_cfa_offset 8
 404              		.cfi_offset 7, -8
 405              		.cfi_offset 14, -4
 406 0002 84B0     		sub	sp, sp, #16
 407              		.cfi_def_cfa_offset 24
 408 0004 00AF     		add	r7, sp, #0
 409              		.cfi_def_cfa_register 7
 410 0006 021C     		mov	r2, r0
 411 0008 3960     		str	r1, [r7]
 412 000a BB1D     		add	r3, r7, #6
 413 000c 1A80     		strh	r2, [r3]
 191:.\Generated_Source\PSoC4/BLE_custom.c ****     uint16 locCharIndex;
 192:.\Generated_Source\PSoC4/BLE_custom.c ****     static CYBLE_GATT_DB_ATTR_HANDLE_T *customsLastEndHandle = NULL;
 193:.\Generated_Source\PSoC4/BLE_custom.c ****     static uint16 discoveryLastServ = 0u;    
 194:.\Generated_Source\PSoC4/BLE_custom.c ****     uint8 locReqHandle = 0u;
 414              		.loc 1 194 0
 415 000e 3B1C     		mov	r3, r7
 416 0010 0D33     		add	r3, r3, #13
 417 0012 0022     		mov	r2, #0
 418 0014 1A70     		strb	r2, [r3]
 195:.\Generated_Source\PSoC4/BLE_custom.c **** 
 196:.\Generated_Source\PSoC4/BLE_custom.c ****     /* Update last characteristic endHandle to declaration handle of this characteristic */
 197:.\Generated_Source\PSoC4/BLE_custom.c ****     if(customsLastEndHandle != NULL)
 419              		.loc 1 197 0
 420 0016 774B     		ldr	r3, .L27
ARM GAS  C:\Users\wmd\AppData\Local\Temp\ccygqUpL.s 			page 12


 421 0018 1B68     		ldr	r3, [r3]
 422 001a 002B     		cmp	r3, #0
 423 001c 0FD0     		beq	.L18
 198:.\Generated_Source\PSoC4/BLE_custom.c ****     {
 199:.\Generated_Source\PSoC4/BLE_custom.c ****         if(discoveryLastServ == discoveryService)
 424              		.loc 1 199 0
 425 001e 764B     		ldr	r3, .L27+4
 426 0020 1B88     		ldrh	r3, [r3]
 427 0022 BA1D     		add	r2, r7, #6
 428 0024 1288     		ldrh	r2, [r2]
 429 0026 9A42     		cmp	r2, r3
 430 0028 06D1     		bne	.L19
 200:.\Generated_Source\PSoC4/BLE_custom.c ****         {
 201:.\Generated_Source\PSoC4/BLE_custom.c ****             *customsLastEndHandle = discCharInfo->charDeclHandle - 1u;
 431              		.loc 1 201 0
 432 002a 724B     		ldr	r3, .L27
 433 002c 1B68     		ldr	r3, [r3]
 434 002e 3A68     		ldr	r2, [r7]
 435 0030 1288     		ldrh	r2, [r2]
 436 0032 013A     		sub	r2, r2, #1
 437 0034 92B2     		uxth	r2, r2
 438 0036 1A80     		strh	r2, [r3]
 439              	.L19:
 202:.\Generated_Source\PSoC4/BLE_custom.c ****         }
 203:.\Generated_Source\PSoC4/BLE_custom.c ****         customsLastEndHandle = NULL;
 440              		.loc 1 203 0
 441 0038 6E4B     		ldr	r3, .L27
 442 003a 0022     		mov	r2, #0
 443 003c 1A60     		str	r2, [r3]
 444              	.L18:
 204:.\Generated_Source\PSoC4/BLE_custom.c ****     }
 205:.\Generated_Source\PSoC4/BLE_custom.c ****     
 206:.\Generated_Source\PSoC4/BLE_custom.c ****     for(locCharIndex = 0u; (locCharIndex < cyBle_customCServ[discoveryService].charCount) && (locRe
 445              		.loc 1 206 0
 446 003e 3B1C     		mov	r3, r7
 447 0040 0E33     		add	r3, r3, #14
 448 0042 0022     		mov	r2, #0
 449 0044 1A80     		strh	r2, [r3]
 450 0046 AFE0     		b	.L20
 451              	.L25:
 452              	.LBB2:
 207:.\Generated_Source\PSoC4/BLE_custom.c ****         locCharIndex++)
 208:.\Generated_Source\PSoC4/BLE_custom.c ****     {
 209:.\Generated_Source\PSoC4/BLE_custom.c ****         uint8 flag = 0u;
 453              		.loc 1 209 0
 454 0048 3B1C     		mov	r3, r7
 455 004a 0C33     		add	r3, r3, #12
 456 004c 0022     		mov	r2, #0
 457 004e 1A70     		strb	r2, [r3]
 210:.\Generated_Source\PSoC4/BLE_custom.c ****         
 211:.\Generated_Source\PSoC4/BLE_custom.c ****         /* Support 128 bit uuid */
 212:.\Generated_Source\PSoC4/BLE_custom.c ****         if((discCharInfo->uuidFormat == CYBLE_GATT_128_BIT_UUID_FORMAT) &&
 458              		.loc 1 212 0
 459 0050 3B68     		ldr	r3, [r7]
 460 0052 9B7D     		ldrb	r3, [r3, #22]
 461 0054 022B     		cmp	r3, #2
 462 0056 29D1     		bne	.L21
ARM GAS  C:\Users\wmd\AppData\Local\Temp\ccygqUpL.s 			page 13


 213:.\Generated_Source\PSoC4/BLE_custom.c ****            (cyBle_customCServ[discoveryService].customServChar[locCharIndex].uuidFormat == 
 463              		.loc 1 213 0 discriminator 1
 464 0058 BB1D     		add	r3, r7, #6
 465 005a 1B88     		ldrh	r3, [r3]
 466 005c 674A     		ldr	r2, .L27+8
 467 005e 1B01     		lsl	r3, r3, #4
 468 0060 D318     		add	r3, r2, r3
 469 0062 0833     		add	r3, r3, #8
 470 0064 5A68     		ldr	r2, [r3, #4]
 471 0066 3B1C     		mov	r3, r7
 472 0068 0E33     		add	r3, r3, #14
 473 006a 1B88     		ldrh	r3, [r3]
 474 006c 1B01     		lsl	r3, r3, #4
 475 006e D318     		add	r3, r2, r3
 476 0070 1B7A     		ldrb	r3, [r3, #8]
 212:.\Generated_Source\PSoC4/BLE_custom.c ****         if((discCharInfo->uuidFormat == CYBLE_GATT_128_BIT_UUID_FORMAT) &&
 477              		.loc 1 212 0 discriminator 1
 478 0072 022B     		cmp	r3, #2
 479 0074 1AD1     		bne	.L21
 214:.\Generated_Source\PSoC4/BLE_custom.c ****                 CYBLE_GATT_128_BIT_UUID_FORMAT))
 215:.\Generated_Source\PSoC4/BLE_custom.c ****         {
 216:.\Generated_Source\PSoC4/BLE_custom.c ****             if(memcmp(cyBle_customCServ[discoveryService].customServChar[locCharIndex].uuid, 
 480              		.loc 1 216 0
 481 0076 BB1D     		add	r3, r7, #6
 482 0078 1B88     		ldrh	r3, [r3]
 483 007a 604A     		ldr	r2, .L27+8
 484 007c 1B01     		lsl	r3, r3, #4
 485 007e D318     		add	r3, r2, r3
 486 0080 0833     		add	r3, r3, #8
 487 0082 5A68     		ldr	r2, [r3, #4]
 488 0084 3B1C     		mov	r3, r7
 489 0086 0E33     		add	r3, r3, #14
 490 0088 1B88     		ldrh	r3, [r3]
 491 008a 1B01     		lsl	r3, r3, #4
 492 008c D318     		add	r3, r2, r3
 493 008e 5A68     		ldr	r2, [r3, #4]
 217:.\Generated_Source\PSoC4/BLE_custom.c ****                 &discCharInfo->uuid.uuid128, CYBLE_GATT_128_BIT_UUID_SIZE) == 0u)
 494              		.loc 1 217 0
 495 0090 3B68     		ldr	r3, [r7]
 496 0092 0633     		add	r3, r3, #6
 216:.\Generated_Source\PSoC4/BLE_custom.c ****             if(memcmp(cyBle_customCServ[discoveryService].customServChar[locCharIndex].uuid, 
 497              		.loc 1 216 0
 498 0094 101C     		mov	r0, r2
 499 0096 191C     		mov	r1, r3
 500 0098 1022     		mov	r2, #16
 501 009a FFF7FEFF 		bl	memcmp
 502 009e 031C     		mov	r3, r0
 503 00a0 002B     		cmp	r3, #0
 504 00a2 03D1     		bne	.L21
 218:.\Generated_Source\PSoC4/BLE_custom.c ****             {
 219:.\Generated_Source\PSoC4/BLE_custom.c ****                 flag = 1u;
 505              		.loc 1 219 0
 506 00a4 3B1C     		mov	r3, r7
 507 00a6 0C33     		add	r3, r3, #12
 508 00a8 0122     		mov	r2, #1
 509 00aa 1A70     		strb	r2, [r3]
 510              	.L21:
ARM GAS  C:\Users\wmd\AppData\Local\Temp\ccygqUpL.s 			page 14


 220:.\Generated_Source\PSoC4/BLE_custom.c ****             }
 221:.\Generated_Source\PSoC4/BLE_custom.c ****         }
 222:.\Generated_Source\PSoC4/BLE_custom.c ****         
 223:.\Generated_Source\PSoC4/BLE_custom.c ****         /* And support 16 bit uuid */
 224:.\Generated_Source\PSoC4/BLE_custom.c ****         if((discCharInfo->uuidFormat == CYBLE_GATT_16_BIT_UUID_FORMAT) &&
 511              		.loc 1 224 0
 512 00ac 3B68     		ldr	r3, [r7]
 513 00ae 9B7D     		ldrb	r3, [r3, #22]
 514 00b0 012B     		cmp	r3, #1
 515 00b2 29D1     		bne	.L22
 225:.\Generated_Source\PSoC4/BLE_custom.c ****            (cyBle_customCServ[discoveryService].customServChar[locCharIndex].uuidFormat == 
 516              		.loc 1 225 0 discriminator 1
 517 00b4 BB1D     		add	r3, r7, #6
 518 00b6 1B88     		ldrh	r3, [r3]
 519 00b8 504A     		ldr	r2, .L27+8
 520 00ba 1B01     		lsl	r3, r3, #4
 521 00bc D318     		add	r3, r2, r3
 522 00be 0833     		add	r3, r3, #8
 523 00c0 5A68     		ldr	r2, [r3, #4]
 524 00c2 3B1C     		mov	r3, r7
 525 00c4 0E33     		add	r3, r3, #14
 526 00c6 1B88     		ldrh	r3, [r3]
 527 00c8 1B01     		lsl	r3, r3, #4
 528 00ca D318     		add	r3, r2, r3
 529 00cc 1B7A     		ldrb	r3, [r3, #8]
 224:.\Generated_Source\PSoC4/BLE_custom.c ****         if((discCharInfo->uuidFormat == CYBLE_GATT_16_BIT_UUID_FORMAT) &&
 530              		.loc 1 224 0 discriminator 1
 531 00ce 012B     		cmp	r3, #1
 532 00d0 1AD1     		bne	.L22
 226:.\Generated_Source\PSoC4/BLE_custom.c ****                 CYBLE_GATT_16_BIT_UUID_FORMAT))
 227:.\Generated_Source\PSoC4/BLE_custom.c ****         {
 228:.\Generated_Source\PSoC4/BLE_custom.c ****             if(memcmp(cyBle_customCServ[discoveryService].customServChar[locCharIndex].uuid, 
 533              		.loc 1 228 0
 534 00d2 BB1D     		add	r3, r7, #6
 535 00d4 1B88     		ldrh	r3, [r3]
 536 00d6 494A     		ldr	r2, .L27+8
 537 00d8 1B01     		lsl	r3, r3, #4
 538 00da D318     		add	r3, r2, r3
 539 00dc 0833     		add	r3, r3, #8
 540 00de 5A68     		ldr	r2, [r3, #4]
 541 00e0 3B1C     		mov	r3, r7
 542 00e2 0E33     		add	r3, r3, #14
 543 00e4 1B88     		ldrh	r3, [r3]
 544 00e6 1B01     		lsl	r3, r3, #4
 545 00e8 D318     		add	r3, r2, r3
 546 00ea 5A68     		ldr	r2, [r3, #4]
 229:.\Generated_Source\PSoC4/BLE_custom.c ****                 &discCharInfo->uuid.uuid16, CYBLE_GATT_16_BIT_UUID_SIZE) == 0u)
 547              		.loc 1 229 0
 548 00ec 3B68     		ldr	r3, [r7]
 549 00ee 0633     		add	r3, r3, #6
 228:.\Generated_Source\PSoC4/BLE_custom.c ****             if(memcmp(cyBle_customCServ[discoveryService].customServChar[locCharIndex].uuid, 
 550              		.loc 1 228 0
 551 00f0 101C     		mov	r0, r2
 552 00f2 191C     		mov	r1, r3
 553 00f4 0222     		mov	r2, #2
 554 00f6 FFF7FEFF 		bl	memcmp
 555 00fa 031C     		mov	r3, r0
ARM GAS  C:\Users\wmd\AppData\Local\Temp\ccygqUpL.s 			page 15


 556 00fc 002B     		cmp	r3, #0
 557 00fe 03D1     		bne	.L22
 230:.\Generated_Source\PSoC4/BLE_custom.c ****             {
 231:.\Generated_Source\PSoC4/BLE_custom.c ****                 flag = 1u;
 558              		.loc 1 231 0
 559 0100 3B1C     		mov	r3, r7
 560 0102 0C33     		add	r3, r3, #12
 561 0104 0122     		mov	r2, #1
 562 0106 1A70     		strb	r2, [r3]
 563              	.L22:
 232:.\Generated_Source\PSoC4/BLE_custom.c ****             }
 233:.\Generated_Source\PSoC4/BLE_custom.c ****         }
 234:.\Generated_Source\PSoC4/BLE_custom.c ****         
 235:.\Generated_Source\PSoC4/BLE_custom.c ****         if((flag == 1u) && 
 564              		.loc 1 235 0
 565 0108 3B1C     		mov	r3, r7
 566 010a 0C33     		add	r3, r3, #12
 567 010c 1B78     		ldrb	r3, [r3]
 568 010e 012B     		cmp	r3, #1
 569 0110 43D1     		bne	.L23
 236:.\Generated_Source\PSoC4/BLE_custom.c ****            (cyBle_customCServ[discoveryService].customServChar[locCharIndex].customServCharHandle
 570              		.loc 1 236 0 discriminator 1
 571 0112 BB1D     		add	r3, r7, #6
 572 0114 1B88     		ldrh	r3, [r3]
 573 0116 394A     		ldr	r2, .L27+8
 574 0118 1B01     		lsl	r3, r3, #4
 575 011a D318     		add	r3, r2, r3
 576 011c 0833     		add	r3, r3, #8
 577 011e 5A68     		ldr	r2, [r3, #4]
 578 0120 3B1C     		mov	r3, r7
 579 0122 0E33     		add	r3, r3, #14
 580 0124 1B88     		ldrh	r3, [r3]
 581 0126 1B01     		lsl	r3, r3, #4
 582 0128 D318     		add	r3, r2, r3
 583 012a 1B88     		ldrh	r3, [r3]
 235:.\Generated_Source\PSoC4/BLE_custom.c ****         if((flag == 1u) && 
 584              		.loc 1 235 0 discriminator 1
 585 012c 002B     		cmp	r3, #0
 586 012e 34D1     		bne	.L23
 237:.\Generated_Source\PSoC4/BLE_custom.c ****                 == CYBLE_GATT_INVALID_ATTR_HANDLE_VALUE))
 238:.\Generated_Source\PSoC4/BLE_custom.c ****         {
 239:.\Generated_Source\PSoC4/BLE_custom.c ****             cyBle_customCServ[discoveryService].customServChar[locCharIndex].customServCharHandle =
 587              		.loc 1 239 0
 588 0130 BB1D     		add	r3, r7, #6
 589 0132 1B88     		ldrh	r3, [r3]
 590 0134 314A     		ldr	r2, .L27+8
 591 0136 1B01     		lsl	r3, r3, #4
 592 0138 D318     		add	r3, r2, r3
 593 013a 0833     		add	r3, r3, #8
 594 013c 5A68     		ldr	r2, [r3, #4]
 595 013e 3B1C     		mov	r3, r7
 596 0140 0E33     		add	r3, r3, #14
 597 0142 1B88     		ldrh	r3, [r3]
 598 0144 1B01     		lsl	r3, r3, #4
 599 0146 D318     		add	r3, r2, r3
 240:.\Generated_Source\PSoC4/BLE_custom.c ****                 discCharInfo->valueHandle;
 600              		.loc 1 240 0
ARM GAS  C:\Users\wmd\AppData\Local\Temp\ccygqUpL.s 			page 16


 601 0148 3A68     		ldr	r2, [r7]
 602 014a 9288     		ldrh	r2, [r2, #4]
 239:.\Generated_Source\PSoC4/BLE_custom.c ****             cyBle_customCServ[discoveryService].customServChar[locCharIndex].customServCharHandle =
 603              		.loc 1 239 0
 604 014c 1A80     		strh	r2, [r3]
 241:.\Generated_Source\PSoC4/BLE_custom.c ****             cyBle_customCServ[discoveryService].customServChar[locCharIndex].properties = 
 605              		.loc 1 241 0
 606 014e BB1D     		add	r3, r7, #6
 607 0150 1B88     		ldrh	r3, [r3]
 608 0152 2A4A     		ldr	r2, .L27+8
 609 0154 1B01     		lsl	r3, r3, #4
 610 0156 D318     		add	r3, r2, r3
 611 0158 0833     		add	r3, r3, #8
 612 015a 5A68     		ldr	r2, [r3, #4]
 613 015c 3B1C     		mov	r3, r7
 614 015e 0E33     		add	r3, r3, #14
 615 0160 1B88     		ldrh	r3, [r3]
 616 0162 1B01     		lsl	r3, r3, #4
 617 0164 D318     		add	r3, r2, r3
 242:.\Generated_Source\PSoC4/BLE_custom.c ****                 discCharInfo->properties;
 618              		.loc 1 242 0
 619 0166 3A68     		ldr	r2, [r7]
 620 0168 9278     		ldrb	r2, [r2, #2]
 241:.\Generated_Source\PSoC4/BLE_custom.c ****             cyBle_customCServ[discoveryService].customServChar[locCharIndex].properties = 
 621              		.loc 1 241 0
 622 016a 5A72     		strb	r2, [r3, #9]
 243:.\Generated_Source\PSoC4/BLE_custom.c ****             /* Init pointer to characteristic endHandle */
 244:.\Generated_Source\PSoC4/BLE_custom.c ****             customsLastEndHandle = &cyBle_customCServ[discoveryService].customServChar[locCharIndex
 623              		.loc 1 244 0
 624 016c BB1D     		add	r3, r7, #6
 625 016e 1B88     		ldrh	r3, [r3]
 626 0170 224A     		ldr	r2, .L27+8
 627 0172 1B01     		lsl	r3, r3, #4
 628 0174 D318     		add	r3, r2, r3
 629 0176 0833     		add	r3, r3, #8
 630 0178 5A68     		ldr	r2, [r3, #4]
 631 017a 3B1C     		mov	r3, r7
 632 017c 0E33     		add	r3, r3, #14
 633 017e 1B88     		ldrh	r3, [r3]
 634 0180 1B01     		lsl	r3, r3, #4
 635 0182 D318     		add	r3, r2, r3
 636 0184 9A1C     		add	r2, r3, #2
 637 0186 1B4B     		ldr	r3, .L27
 638 0188 1A60     		str	r2, [r3]
 245:.\Generated_Source\PSoC4/BLE_custom.c ****                                     customServCharEndHandle;
 246:.\Generated_Source\PSoC4/BLE_custom.c ****             /* Init service index of discovered characteristic */
 247:.\Generated_Source\PSoC4/BLE_custom.c ****             discoveryLastServ = discoveryService;
 639              		.loc 1 247 0
 640 018a 1B4B     		ldr	r3, .L27+4
 641 018c BA1D     		add	r2, r7, #6
 642 018e 1288     		ldrh	r2, [r2]
 643 0190 1A80     		strh	r2, [r3]
 248:.\Generated_Source\PSoC4/BLE_custom.c ****             locReqHandle = 1u;
 644              		.loc 1 248 0
 645 0192 3B1C     		mov	r3, r7
 646 0194 0D33     		add	r3, r3, #13
 647 0196 0122     		mov	r2, #1
ARM GAS  C:\Users\wmd\AppData\Local\Temp\ccygqUpL.s 			page 17


 648 0198 1A70     		strb	r2, [r3]
 649              	.L23:
 650              	.LBE2:
 207:.\Generated_Source\PSoC4/BLE_custom.c ****         locCharIndex++)
 651              		.loc 1 207 0
 652 019a 3B1C     		mov	r3, r7
 653 019c 0E33     		add	r3, r3, #14
 654 019e 1A88     		ldrh	r2, [r3]
 655 01a0 3B1C     		mov	r3, r7
 656 01a2 0E33     		add	r3, r3, #14
 657 01a4 0132     		add	r2, r2, #1
 658 01a6 1A80     		strh	r2, [r3]
 659              	.L20:
 206:.\Generated_Source\PSoC4/BLE_custom.c ****     for(locCharIndex = 0u; (locCharIndex < cyBle_customCServ[discoveryService].charCount) && (locRe
 660              		.loc 1 206 0 discriminator 1
 661 01a8 BB1D     		add	r3, r7, #6
 662 01aa 1B88     		ldrh	r3, [r3]
 663 01ac 134A     		ldr	r2, .L27+8
 664 01ae 1B01     		lsl	r3, r3, #4
 665 01b0 D318     		add	r3, r2, r3
 666 01b2 0833     		add	r3, r3, #8
 667 01b4 5B78     		ldrb	r3, [r3, #1]
 668 01b6 3A1C     		mov	r2, r7
 669 01b8 0E32     		add	r2, r2, #14
 670 01ba 1288     		ldrh	r2, [r2]
 671 01bc 9A42     		cmp	r2, r3
 672 01be 05D2     		bcs	.L24
 206:.\Generated_Source\PSoC4/BLE_custom.c ****     for(locCharIndex = 0u; (locCharIndex < cyBle_customCServ[discoveryService].charCount) && (locRe
 673              		.loc 1 206 0 is_stmt 0 discriminator 2
 674 01c0 3B1C     		mov	r3, r7
 675 01c2 0D33     		add	r3, r3, #13
 676 01c4 1B78     		ldrb	r3, [r3]
 677 01c6 002B     		cmp	r3, #0
 678 01c8 00D1     		bne	.LCB515
 679 01ca 3DE7     		b	.L25	@long jump
 680              	.LCB515:
 681              	.L24:
 249:.\Generated_Source\PSoC4/BLE_custom.c ****         }
 250:.\Generated_Source\PSoC4/BLE_custom.c ****     }
 251:.\Generated_Source\PSoC4/BLE_custom.c ****     
 252:.\Generated_Source\PSoC4/BLE_custom.c ****     /* Init characteristic endHandle to Service endHandle.
 253:.\Generated_Source\PSoC4/BLE_custom.c ****        Characteristic endHandle will be updated to the declaration
 254:.\Generated_Source\PSoC4/BLE_custom.c ****        Handler of the following characteristic,
 255:.\Generated_Source\PSoC4/BLE_custom.c ****        in the following characteristic discovery procedure. */
 256:.\Generated_Source\PSoC4/BLE_custom.c ****     if(customsLastEndHandle != NULL)
 682              		.loc 1 256 0 is_stmt 1
 683 01cc 094B     		ldr	r3, .L27
 684 01ce 1B68     		ldr	r3, [r3]
 685 01d0 002B     		cmp	r3, #0
 686 01d2 0CD0     		beq	.L17
 257:.\Generated_Source\PSoC4/BLE_custom.c ****     {
 258:.\Generated_Source\PSoC4/BLE_custom.c ****         *customsLastEndHandle = cyBle_serverInfo[cyBle_disCount].range.endHandle;
 687              		.loc 1 258 0
 688 01d4 074B     		ldr	r3, .L27
 689 01d6 1968     		ldr	r1, [r3]
 690 01d8 094B     		ldr	r3, .L27+12
 691 01da 1B78     		ldrb	r3, [r3]
ARM GAS  C:\Users\wmd\AppData\Local\Temp\ccygqUpL.s 			page 18


 692 01dc 1A1C     		mov	r2, r3
 693 01de 0948     		ldr	r0, .L27+16
 694 01e0 131C     		mov	r3, r2
 695 01e2 5B00     		lsl	r3, r3, #1
 696 01e4 9B18     		add	r3, r3, r2
 697 01e6 5B00     		lsl	r3, r3, #1
 698 01e8 C318     		add	r3, r0, r3
 699 01ea 5B88     		ldrh	r3, [r3, #2]
 700 01ec 0B80     		strh	r3, [r1]
 701              	.L17:
 259:.\Generated_Source\PSoC4/BLE_custom.c ****     }
 260:.\Generated_Source\PSoC4/BLE_custom.c **** }
 702              		.loc 1 260 0
 703 01ee BD46     		mov	sp, r7
 704 01f0 04B0     		add	sp, sp, #16
 705              		@ sp needed
 706 01f2 80BD     		pop	{r7, pc}
 707              	.L28:
 708              		.align	2
 709              	.L27:
 710 01f4 04000000 		.word	customsLastEndHandle.6105
 711 01f8 08000000 		.word	discoveryLastServ.6106
 712 01fc 00000000 		.word	cyBle_customCServ
 713 0200 00000000 		.word	cyBle_disCount
 714 0204 00000000 		.word	cyBle_serverInfo
 715              		.cfi_endproc
 716              	.LFE4:
 717              		.size	CyBle_CustomcDiscoverCharacteristicsEventHandler, .-CyBle_CustomcDiscoverCharacteristicsEven
 718              		.section	.text.CyBle_CustomcGetCharRange,"ax",%progbits
 719              		.align	2
 720              		.global	CyBle_CustomcGetCharRange
 721              		.code	16
 722              		.thumb_func
 723              		.type	CyBle_CustomcGetCharRange, %function
 724              	CyBle_CustomcGetCharRange:
 725              	.LFB5:
 261:.\Generated_Source\PSoC4/BLE_custom.c **** 
 262:.\Generated_Source\PSoC4/BLE_custom.c **** 
 263:.\Generated_Source\PSoC4/BLE_custom.c **** /****************************************************************************** 
 264:.\Generated_Source\PSoC4/BLE_custom.c **** ##Function Name: CyBle_GetCustomCharRange
 265:.\Generated_Source\PSoC4/BLE_custom.c **** *******************************************************************************
 266:.\Generated_Source\PSoC4/BLE_custom.c **** 
 267:.\Generated_Source\PSoC4/BLE_custom.c **** Summary:
 268:.\Generated_Source\PSoC4/BLE_custom.c ****  Returns a possible range of the current characteristic descriptor
 269:.\Generated_Source\PSoC4/BLE_custom.c ****  which is pointed by custom service and char index.
 270:.\Generated_Source\PSoC4/BLE_custom.c **** 
 271:.\Generated_Source\PSoC4/BLE_custom.c **** Parameters:
 272:.\Generated_Source\PSoC4/BLE_custom.c ****  incrementIndex: Not zero value indicates that service and characteristic index
 273:.\Generated_Source\PSoC4/BLE_custom.c ****                  should be incremented.
 274:.\Generated_Source\PSoC4/BLE_custom.c **** Return:
 275:.\Generated_Source\PSoC4/BLE_custom.c ****  CYBLE_GATT_ATTR_HANDLE_RANGE_T range: the block of start and end handles.
 276:.\Generated_Source\PSoC4/BLE_custom.c **** 
 277:.\Generated_Source\PSoC4/BLE_custom.c **** ******************************************************************************/
 278:.\Generated_Source\PSoC4/BLE_custom.c **** CYBLE_GATT_ATTR_HANDLE_RANGE_T CyBle_CustomcGetCharRange(uint8 incrementIndex)
 279:.\Generated_Source\PSoC4/BLE_custom.c **** {
 726              		.loc 1 279 0
 727              		.cfi_startproc
ARM GAS  C:\Users\wmd\AppData\Local\Temp\ccygqUpL.s 			page 19


 728 0000 80B5     		push	{r7, lr}
 729              		.cfi_def_cfa_offset 8
 730              		.cfi_offset 7, -8
 731              		.cfi_offset 14, -4
 732 0002 84B0     		sub	sp, sp, #16
 733              		.cfi_def_cfa_offset 24
 734 0004 00AF     		add	r7, sp, #0
 735              		.cfi_def_cfa_register 7
 736 0006 021C     		mov	r2, r0
 737 0008 FB1D     		add	r3, r7, #7
 738 000a 1A70     		strb	r2, [r3]
 280:.\Generated_Source\PSoC4/BLE_custom.c ****     CYBLE_GATT_ATTR_HANDLE_RANGE_T charRange = {CYBLE_GATT_INVALID_ATTR_HANDLE_VALUE, CYBLE_GATT_IN
 739              		.loc 1 280 0
 740 000c 3B1C     		mov	r3, r7
 741 000e 0833     		add	r3, r3, #8
 742 0010 0022     		mov	r2, #0
 743 0012 1A80     		strh	r2, [r3]
 744 0014 3B1C     		mov	r3, r7
 745 0016 0833     		add	r3, r3, #8
 746 0018 0022     		mov	r2, #0
 747 001a 5A80     		strh	r2, [r3, #2]
 748              	.L38:
 281:.\Generated_Source\PSoC4/BLE_custom.c **** 
 282:.\Generated_Source\PSoC4/BLE_custom.c ****     do{
 283:.\Generated_Source\PSoC4/BLE_custom.c ****         if(incrementIndex != CYBLE_DISCOVERY_INIT)
 749              		.loc 1 283 0
 750 001c FB1D     		add	r3, r7, #7
 751 001e 1B78     		ldrb	r3, [r3]
 752 0020 002B     		cmp	r3, #0
 753 0022 2DD0     		beq	.L30
 284:.\Generated_Source\PSoC4/BLE_custom.c ****         {
 285:.\Generated_Source\PSoC4/BLE_custom.c ****             if((cyBle_customDisCharIndex + 1u) < cyBle_customCServ[cyBle_customDisServIndex].charCo
 754              		.loc 1 285 0
 755 0024 4C4B     		ldr	r3, .L40
 756 0026 1B88     		ldrh	r3, [r3]
 757 0028 5A1C     		add	r2, r3, #1
 758 002a 4C4B     		ldr	r3, .L40+4
 759 002c 1B88     		ldrh	r3, [r3]
 760 002e 4C49     		ldr	r1, .L40+8
 761 0030 1B01     		lsl	r3, r3, #4
 762 0032 CB18     		add	r3, r1, r3
 763 0034 0833     		add	r3, r3, #8
 764 0036 5B78     		ldrb	r3, [r3, #1]
 765 0038 9A42     		cmp	r2, r3
 766 003a 06D2     		bcs	.L31
 286:.\Generated_Source\PSoC4/BLE_custom.c ****             {
 287:.\Generated_Source\PSoC4/BLE_custom.c ****                 cyBle_customDisCharIndex++;
 767              		.loc 1 287 0
 768 003c 464B     		ldr	r3, .L40
 769 003e 1B88     		ldrh	r3, [r3]
 770 0040 0133     		add	r3, r3, #1
 771 0042 9AB2     		uxth	r2, r3
 772 0044 444B     		ldr	r3, .L40
 773 0046 1A80     		strh	r2, [r3]
 774 0048 23E0     		b	.L34
 775              	.L31:
 288:.\Generated_Source\PSoC4/BLE_custom.c ****             }
ARM GAS  C:\Users\wmd\AppData\Local\Temp\ccygqUpL.s 			page 20


 289:.\Generated_Source\PSoC4/BLE_custom.c ****             else 
 290:.\Generated_Source\PSoC4/BLE_custom.c ****             {
 291:.\Generated_Source\PSoC4/BLE_custom.c ****                 if((cyBle_customDisServIndex + 1u) < CYBLE_CUSTOMC_SERVICE_COUNT)
 776              		.loc 1 291 0
 777 004a 444B     		ldr	r3, .L40+4
 778 004c 1B88     		ldrh	r3, [r3]
 779 004e 0133     		add	r3, r3, #1
 780 0050 09D1     		bne	.L33
 292:.\Generated_Source\PSoC4/BLE_custom.c ****                 {
 293:.\Generated_Source\PSoC4/BLE_custom.c ****                     cyBle_customDisServIndex++;      /* Discover descriptors for next custom servic
 781              		.loc 1 293 0
 782 0052 424B     		ldr	r3, .L40+4
 783 0054 1B88     		ldrh	r3, [r3]
 784 0056 0133     		add	r3, r3, #1
 785 0058 9AB2     		uxth	r2, r3
 786 005a 404B     		ldr	r3, .L40+4
 787 005c 1A80     		strh	r2, [r3]
 294:.\Generated_Source\PSoC4/BLE_custom.c ****                     /* Set characteristic index to first characteristic of custom service */
 295:.\Generated_Source\PSoC4/BLE_custom.c ****                     cyBle_customDisCharIndex = 0u;
 788              		.loc 1 295 0
 789 005e 3E4B     		ldr	r3, .L40
 790 0060 0022     		mov	r2, #0
 791 0062 1A80     		strh	r2, [r3]
 792 0064 15E0     		b	.L34
 793              	.L33:
 296:.\Generated_Source\PSoC4/BLE_custom.c ****                 }
 297:.\Generated_Source\PSoC4/BLE_custom.c ****                 else /* Increment general discovery index when custom characteristic discovery is d
 298:.\Generated_Source\PSoC4/BLE_custom.c ****                 {
 299:.\Generated_Source\PSoC4/BLE_custom.c ****                     cyBle_disCount++;  
 794              		.loc 1 299 0
 795 0066 3F4B     		ldr	r3, .L40+12
 796 0068 1B78     		ldrb	r3, [r3]
 797 006a 0133     		add	r3, r3, #1
 798 006c DAB2     		uxtb	r2, r3
 799 006e 3D4B     		ldr	r3, .L40+12
 800 0070 1A70     		strb	r2, [r3]
 300:.\Generated_Source\PSoC4/BLE_custom.c ****                     cyBle_customDisCharIndex++;
 801              		.loc 1 300 0
 802 0072 394B     		ldr	r3, .L40
 803 0074 1B88     		ldrh	r3, [r3]
 804 0076 0133     		add	r3, r3, #1
 805 0078 9AB2     		uxth	r2, r3
 806 007a 374B     		ldr	r3, .L40
 807 007c 1A80     		strh	r2, [r3]
 808 007e 08E0     		b	.L34
 809              	.L30:
 301:.\Generated_Source\PSoC4/BLE_custom.c ****                 }
 302:.\Generated_Source\PSoC4/BLE_custom.c ****             }
 303:.\Generated_Source\PSoC4/BLE_custom.c ****         }
 304:.\Generated_Source\PSoC4/BLE_custom.c ****         else    /* Increment indexes in the following loop */
 305:.\Generated_Source\PSoC4/BLE_custom.c ****         {
 306:.\Generated_Source\PSoC4/BLE_custom.c ****             cyBle_customDisServIndex = 0u;
 810              		.loc 1 306 0
 811 0080 364B     		ldr	r3, .L40+4
 812 0082 0022     		mov	r2, #0
 813 0084 1A80     		strh	r2, [r3]
 307:.\Generated_Source\PSoC4/BLE_custom.c ****             cyBle_customDisCharIndex = 0u;
ARM GAS  C:\Users\wmd\AppData\Local\Temp\ccygqUpL.s 			page 21


 814              		.loc 1 307 0
 815 0086 344B     		ldr	r3, .L40
 816 0088 0022     		mov	r2, #0
 817 008a 1A80     		strh	r2, [r3]
 308:.\Generated_Source\PSoC4/BLE_custom.c ****             incrementIndex = 1u;
 818              		.loc 1 308 0
 819 008c FB1D     		add	r3, r7, #7
 820 008e 0122     		mov	r2, #1
 821 0090 1A70     		strb	r2, [r3]
 822              	.L34:
 309:.\Generated_Source\PSoC4/BLE_custom.c ****         }            
 310:.\Generated_Source\PSoC4/BLE_custom.c ****         /* Read characteristic range */
 311:.\Generated_Source\PSoC4/BLE_custom.c ****         if(cyBle_customDisCharIndex < (cyBle_customCServ[cyBle_customDisServIndex].charCount))
 823              		.loc 1 311 0
 824 0092 324B     		ldr	r3, .L40+4
 825 0094 1B88     		ldrh	r3, [r3]
 826 0096 324A     		ldr	r2, .L40+8
 827 0098 1B01     		lsl	r3, r3, #4
 828 009a D318     		add	r3, r2, r3
 829 009c 0833     		add	r3, r3, #8
 830 009e 5B78     		ldrb	r3, [r3, #1]
 831 00a0 1A1C     		mov	r2, r3
 832 00a2 2D4B     		ldr	r3, .L40
 833 00a4 1B88     		ldrh	r3, [r3]
 834 00a6 9A42     		cmp	r2, r3
 835 00a8 1FD9     		bls	.L35
 312:.\Generated_Source\PSoC4/BLE_custom.c ****         {
 313:.\Generated_Source\PSoC4/BLE_custom.c ****             charRange.startHandle = cyBle_customCServ[cyBle_customDisServIndex].
 836              		.loc 1 313 0
 837 00aa 2C4B     		ldr	r3, .L40+4
 838 00ac 1B88     		ldrh	r3, [r3]
 839 00ae 2C4A     		ldr	r2, .L40+8
 840 00b0 1B01     		lsl	r3, r3, #4
 841 00b2 D318     		add	r3, r2, r3
 842 00b4 0833     		add	r3, r3, #8
 843 00b6 5A68     		ldr	r2, [r3, #4]
 314:.\Generated_Source\PSoC4/BLE_custom.c ****                                 customServChar[cyBle_customDisCharIndex].customServCharHandle + 1u;
 844              		.loc 1 314 0
 845 00b8 274B     		ldr	r3, .L40
 846 00ba 1B88     		ldrh	r3, [r3]
 847 00bc 1B01     		lsl	r3, r3, #4
 848 00be D318     		add	r3, r2, r3
 849 00c0 1B88     		ldrh	r3, [r3]
 313:.\Generated_Source\PSoC4/BLE_custom.c ****             charRange.startHandle = cyBle_customCServ[cyBle_customDisServIndex].
 850              		.loc 1 313 0
 851 00c2 0133     		add	r3, r3, #1
 852 00c4 9AB2     		uxth	r2, r3
 853 00c6 3B1C     		mov	r3, r7
 854 00c8 0833     		add	r3, r3, #8
 855 00ca 1A80     		strh	r2, [r3]
 315:.\Generated_Source\PSoC4/BLE_custom.c ****             charRange.endHandle = cyBle_customCServ[cyBle_customDisServIndex].
 856              		.loc 1 315 0
 857 00cc 234B     		ldr	r3, .L40+4
 858 00ce 1B88     		ldrh	r3, [r3]
 859 00d0 234A     		ldr	r2, .L40+8
 860 00d2 1B01     		lsl	r3, r3, #4
 861 00d4 D318     		add	r3, r2, r3
ARM GAS  C:\Users\wmd\AppData\Local\Temp\ccygqUpL.s 			page 22


 862 00d6 0833     		add	r3, r3, #8
 863 00d8 5A68     		ldr	r2, [r3, #4]
 316:.\Generated_Source\PSoC4/BLE_custom.c ****                                 customServChar[cyBle_customDisCharIndex].customServCharEndHandle;
 864              		.loc 1 316 0
 865 00da 1F4B     		ldr	r3, .L40
 866 00dc 1B88     		ldrh	r3, [r3]
 867 00de 1B01     		lsl	r3, r3, #4
 868 00e0 D318     		add	r3, r2, r3
 869 00e2 5A88     		ldrh	r2, [r3, #2]
 315:.\Generated_Source\PSoC4/BLE_custom.c ****             charRange.endHandle = cyBle_customCServ[cyBle_customDisServIndex].
 870              		.loc 1 315 0
 871 00e4 3B1C     		mov	r3, r7
 872 00e6 0833     		add	r3, r3, #8
 873 00e8 5A80     		strh	r2, [r3, #2]
 874              	.L35:
 317:.\Generated_Source\PSoC4/BLE_custom.c ****         }
 318:.\Generated_Source\PSoC4/BLE_custom.c ****     }while(((charRange.startHandle == (CYBLE_GATT_INVALID_ATTR_HANDLE_VALUE + 1u)) || 
 875              		.loc 1 318 0
 876 00ea 3B1C     		mov	r3, r7
 877 00ec 0833     		add	r3, r3, #8
 878 00ee 1B88     		ldrh	r3, [r3]
 319:.\Generated_Source\PSoC4/BLE_custom.c ****             (charRange.endHandle == CYBLE_GATT_INVALID_ATTR_HANDLE_VALUE) ||
 320:.\Generated_Source\PSoC4/BLE_custom.c ****             (charRange.startHandle > charRange.endHandle)) && 
 321:.\Generated_Source\PSoC4/BLE_custom.c ****             (cyBle_customDisCharIndex < cyBle_customCServ[cyBle_customDisServIndex].charCount));
 879              		.loc 1 321 0
 880 00f0 012B     		cmp	r3, #1
 881 00f2 0CD0     		beq	.L36
 319:.\Generated_Source\PSoC4/BLE_custom.c ****             (charRange.endHandle == CYBLE_GATT_INVALID_ATTR_HANDLE_VALUE) ||
 882              		.loc 1 319 0
 883 00f4 3B1C     		mov	r3, r7
 884 00f6 0833     		add	r3, r3, #8
 885 00f8 5B88     		ldrh	r3, [r3, #2]
 318:.\Generated_Source\PSoC4/BLE_custom.c ****     }while(((charRange.startHandle == (CYBLE_GATT_INVALID_ATTR_HANDLE_VALUE + 1u)) || 
 886              		.loc 1 318 0
 887 00fa 002B     		cmp	r3, #0
 888 00fc 07D0     		beq	.L36
 320:.\Generated_Source\PSoC4/BLE_custom.c ****             (charRange.startHandle > charRange.endHandle)) && 
 889              		.loc 1 320 0
 890 00fe 3B1C     		mov	r3, r7
 891 0100 0833     		add	r3, r3, #8
 892 0102 1A88     		ldrh	r2, [r3]
 893 0104 3B1C     		mov	r3, r7
 894 0106 0833     		add	r3, r3, #8
 895 0108 5B88     		ldrh	r3, [r3, #2]
 319:.\Generated_Source\PSoC4/BLE_custom.c ****             (charRange.endHandle == CYBLE_GATT_INVALID_ATTR_HANDLE_VALUE) ||
 896              		.loc 1 319 0
 897 010a 9A42     		cmp	r2, r3
 898 010c 0CD9     		bls	.L37
 899              	.L36:
 900              		.loc 1 321 0 discriminator 1
 901 010e 134B     		ldr	r3, .L40+4
 902 0110 1B88     		ldrh	r3, [r3]
 903 0112 134A     		ldr	r2, .L40+8
 904 0114 1B01     		lsl	r3, r3, #4
 905 0116 D318     		add	r3, r2, r3
 906 0118 0833     		add	r3, r3, #8
 907 011a 5B78     		ldrb	r3, [r3, #1]
ARM GAS  C:\Users\wmd\AppData\Local\Temp\ccygqUpL.s 			page 23


 908 011c 1A1C     		mov	r2, r3
 909 011e 0E4B     		ldr	r3, .L40
 910 0120 1B88     		ldrh	r3, [r3]
 320:.\Generated_Source\PSoC4/BLE_custom.c ****             (charRange.startHandle > charRange.endHandle)) && 
 911              		.loc 1 320 0 discriminator 1
 912 0122 9A42     		cmp	r2, r3
 913 0124 00D9     		bls	.LCB726
 914 0126 79E7     		b	.L38	@long jump
 915              	.LCB726:
 916              	.L37:
 322:.\Generated_Source\PSoC4/BLE_custom.c ****     
 323:.\Generated_Source\PSoC4/BLE_custom.c ****     return(charRange);
 917              		.loc 1 323 0
 918 0128 3B1C     		mov	r3, r7
 919 012a 0C33     		add	r3, r3, #12
 920 012c 3A1C     		mov	r2, r7
 921 012e 0832     		add	r2, r2, #8
 922 0130 1268     		ldr	r2, [r2]
 923 0132 1A60     		str	r2, [r3]
 924 0134 3A1C     		mov	r2, r7
 925 0136 0C32     		add	r2, r2, #12
 926 0138 0023     		mov	r3, #0
 927 013a 1188     		ldrh	r1, [r2]
 928 013c 0904     		lsl	r1, r1, #16
 929 013e 090C     		lsr	r1, r1, #16
 930 0140 1B0C     		lsr	r3, r3, #16
 931 0142 1B04     		lsl	r3, r3, #16
 932 0144 0B43     		orr	r3, r1
 933 0146 5288     		ldrh	r2, [r2, #2]
 934 0148 1204     		lsl	r2, r2, #16
 935 014a 1B04     		lsl	r3, r3, #16
 936 014c 1B0C     		lsr	r3, r3, #16
 937 014e 1343     		orr	r3, r2
 324:.\Generated_Source\PSoC4/BLE_custom.c **** }
 938              		.loc 1 324 0
 939 0150 181C     		mov	r0, r3
 940 0152 BD46     		mov	sp, r7
 941 0154 04B0     		add	sp, sp, #16
 942              		@ sp needed
 943 0156 80BD     		pop	{r7, pc}
 944              	.L41:
 945              		.align	2
 946              	.L40:
 947 0158 02000000 		.word	cyBle_customDisCharIndex
 948 015c 00000000 		.word	cyBle_customDisServIndex
 949 0160 00000000 		.word	cyBle_customCServ
 950 0164 00000000 		.word	cyBle_disCount
 951              		.cfi_endproc
 952              	.LFE5:
 953              		.size	CyBle_CustomcGetCharRange, .-CyBle_CustomcGetCharRange
 954              		.section	.text.CyBle_CustomcDiscoverCharDescriptorsEventHandler,"ax",%progbits
 955              		.align	2
 956              		.global	CyBle_CustomcDiscoverCharDescriptorsEventHandler
 957              		.code	16
 958              		.thumb_func
 959              		.type	CyBle_CustomcDiscoverCharDescriptorsEventHandler, %function
 960              	CyBle_CustomcDiscoverCharDescriptorsEventHandler:
ARM GAS  C:\Users\wmd\AppData\Local\Temp\ccygqUpL.s 			page 24


 961              	.LFB6:
 325:.\Generated_Source\PSoC4/BLE_custom.c **** 
 326:.\Generated_Source\PSoC4/BLE_custom.c **** 
 327:.\Generated_Source\PSoC4/BLE_custom.c **** /******************************************************************************
 328:.\Generated_Source\PSoC4/BLE_custom.c **** ##Function Name: CyBle_CustomcDiscoverCharDescriptorsEventHandler
 329:.\Generated_Source\PSoC4/BLE_custom.c **** *******************************************************************************
 330:.\Generated_Source\PSoC4/BLE_custom.c **** 
 331:.\Generated_Source\PSoC4/BLE_custom.c **** Summary:
 332:.\Generated_Source\PSoC4/BLE_custom.c ****  This function is called on receiving a CYBLE_EVT_GATTC_FIND_INFO_RSP event.
 333:.\Generated_Source\PSoC4/BLE_custom.c ****  Based on the descriptor UUID, an appropriate data structure is populated using
 334:.\Generated_Source\PSoC4/BLE_custom.c ****  the data received as part of the callback.
 335:.\Generated_Source\PSoC4/BLE_custom.c **** 
 336:.\Generated_Source\PSoC4/BLE_custom.c **** Parameters:
 337:.\Generated_Source\PSoC4/BLE_custom.c ****  *discDescrInfo: The pointer to a descriptor information structure.
 338:.\Generated_Source\PSoC4/BLE_custom.c **** 
 339:.\Generated_Source\PSoC4/BLE_custom.c **** Return:
 340:.\Generated_Source\PSoC4/BLE_custom.c ****  None
 341:.\Generated_Source\PSoC4/BLE_custom.c **** 
 342:.\Generated_Source\PSoC4/BLE_custom.c **** ******************************************************************************/
 343:.\Generated_Source\PSoC4/BLE_custom.c **** void CyBle_CustomcDiscoverCharDescriptorsEventHandler(const CYBLE_DISC_DESCR_INFO_T *discDescrInfo)
 344:.\Generated_Source\PSoC4/BLE_custom.c **** {
 962              		.loc 1 344 0
 963              		.cfi_startproc
 964 0000 80B5     		push	{r7, lr}
 965              		.cfi_def_cfa_offset 8
 966              		.cfi_offset 7, -8
 967              		.cfi_offset 14, -4
 968 0002 84B0     		sub	sp, sp, #16
 969              		.cfi_def_cfa_offset 24
 970 0004 00AF     		add	r7, sp, #0
 971              		.cfi_def_cfa_register 7
 972 0006 7860     		str	r0, [r7, #4]
 345:.\Generated_Source\PSoC4/BLE_custom.c ****     uint8 locDescIndex;
 346:.\Generated_Source\PSoC4/BLE_custom.c ****     uint8 locReqHandle = 0u;
 973              		.loc 1 346 0
 974 0008 3B1C     		mov	r3, r7
 975 000a 0E33     		add	r3, r3, #14
 976 000c 0022     		mov	r2, #0
 977 000e 1A70     		strb	r2, [r3]
 347:.\Generated_Source\PSoC4/BLE_custom.c **** 
 348:.\Generated_Source\PSoC4/BLE_custom.c ****     for(locDescIndex = 0u; (locDescIndex < cyBle_customCServ[cyBle_customDisServIndex].
 978              		.loc 1 348 0
 979 0010 3B1C     		mov	r3, r7
 980 0012 0F33     		add	r3, r3, #15
 981 0014 0022     		mov	r2, #0
 982 0016 1A70     		strb	r2, [r3]
 983 0018 BDE0     		b	.L43
 984              	.L48:
 985              	.LBB3:
 349:.\Generated_Source\PSoC4/BLE_custom.c ****           customServChar[cyBle_customDisCharIndex].descCount) && (locReqHandle == 0u); locDescIndex
 350:.\Generated_Source\PSoC4/BLE_custom.c ****     {
 351:.\Generated_Source\PSoC4/BLE_custom.c ****         uint8 flag = 0u;
 986              		.loc 1 351 0
 987 001a 3B1C     		mov	r3, r7
 988 001c 0D33     		add	r3, r3, #13
 989 001e 0022     		mov	r2, #0
 990 0020 1A70     		strb	r2, [r3]
ARM GAS  C:\Users\wmd\AppData\Local\Temp\ccygqUpL.s 			page 25


 352:.\Generated_Source\PSoC4/BLE_custom.c ****         
 353:.\Generated_Source\PSoC4/BLE_custom.c ****         if((discDescrInfo->uuidFormat == CYBLE_GATT_128_BIT_UUID_FORMAT) &&
 991              		.loc 1 353 0
 992 0022 7B68     		ldr	r3, [r7, #4]
 993 0024 1B7D     		ldrb	r3, [r3, #20]
 994 0026 022B     		cmp	r3, #2
 995 0028 39D1     		bne	.L44
 354:.\Generated_Source\PSoC4/BLE_custom.c ****            (cyBle_customCServ[cyBle_customDisServIndex].customServChar[cyBle_customDisCharIndex].
 996              		.loc 1 354 0 discriminator 1
 997 002a 684B     		ldr	r3, .L49
 998 002c 1B88     		ldrh	r3, [r3]
 999 002e 684A     		ldr	r2, .L49+4
 1000 0030 1B01     		lsl	r3, r3, #4
 1001 0032 D318     		add	r3, r2, r3
 1002 0034 0833     		add	r3, r3, #8
 1003 0036 5A68     		ldr	r2, [r3, #4]
 1004 0038 664B     		ldr	r3, .L49+8
 1005 003a 1B88     		ldrh	r3, [r3]
 1006 003c 1B01     		lsl	r3, r3, #4
 1007 003e D318     		add	r3, r2, r3
 1008 0040 D968     		ldr	r1, [r3, #12]
 355:.\Generated_Source\PSoC4/BLE_custom.c ****              customServCharDesc[locDescIndex].uuidFormat == CYBLE_GATT_128_BIT_UUID_FORMAT))
 1009              		.loc 1 355 0 discriminator 1
 1010 0042 3B1C     		mov	r3, r7
 1011 0044 0F33     		add	r3, r3, #15
 1012 0046 1A78     		ldrb	r2, [r3]
 1013 0048 131C     		mov	r3, r2
 1014 004a 5B00     		lsl	r3, r3, #1
 1015 004c 9B18     		add	r3, r3, r2
 1016 004e 9B00     		lsl	r3, r3, #2
 1017 0050 CB18     		add	r3, r1, r3
 1018 0052 1B7A     		ldrb	r3, [r3, #8]
 353:.\Generated_Source\PSoC4/BLE_custom.c ****         if((discDescrInfo->uuidFormat == CYBLE_GATT_128_BIT_UUID_FORMAT) &&
 1019              		.loc 1 353 0 discriminator 1
 1020 0054 022B     		cmp	r3, #2
 1021 0056 22D1     		bne	.L44
 356:.\Generated_Source\PSoC4/BLE_custom.c ****         {
 357:.\Generated_Source\PSoC4/BLE_custom.c ****             if(memcmp(cyBle_customCServ[cyBle_customDisServIndex].
 1022              		.loc 1 357 0
 1023 0058 5C4B     		ldr	r3, .L49
 1024 005a 1B88     		ldrh	r3, [r3]
 1025 005c 5C4A     		ldr	r2, .L49+4
 1026 005e 1B01     		lsl	r3, r3, #4
 1027 0060 D318     		add	r3, r2, r3
 1028 0062 0833     		add	r3, r3, #8
 1029 0064 5A68     		ldr	r2, [r3, #4]
 358:.\Generated_Source\PSoC4/BLE_custom.c ****                 customServChar[cyBle_customDisCharIndex].customServCharDesc[locDescIndex].uuid, 
 1030              		.loc 1 358 0
 1031 0066 5B4B     		ldr	r3, .L49+8
 1032 0068 1B88     		ldrh	r3, [r3]
 1033 006a 1B01     		lsl	r3, r3, #4
 1034 006c D318     		add	r3, r2, r3
 1035 006e D968     		ldr	r1, [r3, #12]
 1036 0070 3B1C     		mov	r3, r7
 1037 0072 0F33     		add	r3, r3, #15
 1038 0074 1A78     		ldrb	r2, [r3]
 1039 0076 131C     		mov	r3, r2
ARM GAS  C:\Users\wmd\AppData\Local\Temp\ccygqUpL.s 			page 26


 1040 0078 5B00     		lsl	r3, r3, #1
 1041 007a 9B18     		add	r3, r3, r2
 1042 007c 9B00     		lsl	r3, r3, #2
 1043 007e CB18     		add	r3, r1, r3
 357:.\Generated_Source\PSoC4/BLE_custom.c ****             if(memcmp(cyBle_customCServ[cyBle_customDisServIndex].
 1044              		.loc 1 357 0
 1045 0080 5A68     		ldr	r2, [r3, #4]
 359:.\Generated_Source\PSoC4/BLE_custom.c ****                 &discDescrInfo->uuid.uuid128, CYBLE_GATT_128_BIT_UUID_SIZE) == 0u)
 1046              		.loc 1 359 0
 1047 0082 7B68     		ldr	r3, [r7, #4]
 1048 0084 0433     		add	r3, r3, #4
 357:.\Generated_Source\PSoC4/BLE_custom.c ****             if(memcmp(cyBle_customCServ[cyBle_customDisServIndex].
 1049              		.loc 1 357 0
 1050 0086 101C     		mov	r0, r2
 1051 0088 191C     		mov	r1, r3
 1052 008a 1022     		mov	r2, #16
 1053 008c FFF7FEFF 		bl	memcmp
 1054 0090 031C     		mov	r3, r0
 1055 0092 002B     		cmp	r3, #0
 1056 0094 03D1     		bne	.L44
 360:.\Generated_Source\PSoC4/BLE_custom.c ****             {
 361:.\Generated_Source\PSoC4/BLE_custom.c ****                 flag = 1u;
 1057              		.loc 1 361 0
 1058 0096 3B1C     		mov	r3, r7
 1059 0098 0D33     		add	r3, r3, #13
 1060 009a 0122     		mov	r2, #1
 1061 009c 1A70     		strb	r2, [r3]
 1062              	.L44:
 362:.\Generated_Source\PSoC4/BLE_custom.c ****             }
 363:.\Generated_Source\PSoC4/BLE_custom.c ****         }
 364:.\Generated_Source\PSoC4/BLE_custom.c ****         
 365:.\Generated_Source\PSoC4/BLE_custom.c ****         if((discDescrInfo->uuidFormat == CYBLE_GATT_16_BIT_UUID_FORMAT) &&
 1063              		.loc 1 365 0
 1064 009e 7B68     		ldr	r3, [r7, #4]
 1065 00a0 1B7D     		ldrb	r3, [r3, #20]
 1066 00a2 012B     		cmp	r3, #1
 1067 00a4 39D1     		bne	.L45
 366:.\Generated_Source\PSoC4/BLE_custom.c ****            (cyBle_customCServ[cyBle_customDisServIndex].customServChar[cyBle_customDisCharIndex].
 1068              		.loc 1 366 0 discriminator 1
 1069 00a6 494B     		ldr	r3, .L49
 1070 00a8 1B88     		ldrh	r3, [r3]
 1071 00aa 494A     		ldr	r2, .L49+4
 1072 00ac 1B01     		lsl	r3, r3, #4
 1073 00ae D318     		add	r3, r2, r3
 1074 00b0 0833     		add	r3, r3, #8
 1075 00b2 5A68     		ldr	r2, [r3, #4]
 1076 00b4 474B     		ldr	r3, .L49+8
 1077 00b6 1B88     		ldrh	r3, [r3]
 1078 00b8 1B01     		lsl	r3, r3, #4
 1079 00ba D318     		add	r3, r2, r3
 1080 00bc D968     		ldr	r1, [r3, #12]
 367:.\Generated_Source\PSoC4/BLE_custom.c ****              customServCharDesc[locDescIndex].uuidFormat == CYBLE_GATT_16_BIT_UUID_FORMAT))
 1081              		.loc 1 367 0 discriminator 1
 1082 00be 3B1C     		mov	r3, r7
 1083 00c0 0F33     		add	r3, r3, #15
 1084 00c2 1A78     		ldrb	r2, [r3]
 1085 00c4 131C     		mov	r3, r2
ARM GAS  C:\Users\wmd\AppData\Local\Temp\ccygqUpL.s 			page 27


 1086 00c6 5B00     		lsl	r3, r3, #1
 1087 00c8 9B18     		add	r3, r3, r2
 1088 00ca 9B00     		lsl	r3, r3, #2
 1089 00cc CB18     		add	r3, r1, r3
 1090 00ce 1B7A     		ldrb	r3, [r3, #8]
 365:.\Generated_Source\PSoC4/BLE_custom.c ****         if((discDescrInfo->uuidFormat == CYBLE_GATT_16_BIT_UUID_FORMAT) &&
 1091              		.loc 1 365 0 discriminator 1
 1092 00d0 012B     		cmp	r3, #1
 1093 00d2 22D1     		bne	.L45
 368:.\Generated_Source\PSoC4/BLE_custom.c ****         {
 369:.\Generated_Source\PSoC4/BLE_custom.c ****             if(memcmp(cyBle_customCServ[cyBle_customDisServIndex].
 1094              		.loc 1 369 0
 1095 00d4 3D4B     		ldr	r3, .L49
 1096 00d6 1B88     		ldrh	r3, [r3]
 1097 00d8 3D4A     		ldr	r2, .L49+4
 1098 00da 1B01     		lsl	r3, r3, #4
 1099 00dc D318     		add	r3, r2, r3
 1100 00de 0833     		add	r3, r3, #8
 1101 00e0 5A68     		ldr	r2, [r3, #4]
 370:.\Generated_Source\PSoC4/BLE_custom.c ****                 customServChar[cyBle_customDisCharIndex].customServCharDesc[locDescIndex].uuid, 
 1102              		.loc 1 370 0
 1103 00e2 3C4B     		ldr	r3, .L49+8
 1104 00e4 1B88     		ldrh	r3, [r3]
 1105 00e6 1B01     		lsl	r3, r3, #4
 1106 00e8 D318     		add	r3, r2, r3
 1107 00ea D968     		ldr	r1, [r3, #12]
 1108 00ec 3B1C     		mov	r3, r7
 1109 00ee 0F33     		add	r3, r3, #15
 1110 00f0 1A78     		ldrb	r2, [r3]
 1111 00f2 131C     		mov	r3, r2
 1112 00f4 5B00     		lsl	r3, r3, #1
 1113 00f6 9B18     		add	r3, r3, r2
 1114 00f8 9B00     		lsl	r3, r3, #2
 1115 00fa CB18     		add	r3, r1, r3
 369:.\Generated_Source\PSoC4/BLE_custom.c ****             if(memcmp(cyBle_customCServ[cyBle_customDisServIndex].
 1116              		.loc 1 369 0
 1117 00fc 5A68     		ldr	r2, [r3, #4]
 371:.\Generated_Source\PSoC4/BLE_custom.c ****                 &discDescrInfo->uuid.uuid16, CYBLE_GATT_16_BIT_UUID_SIZE) == 0u)
 1118              		.loc 1 371 0
 1119 00fe 7B68     		ldr	r3, [r7, #4]
 1120 0100 0433     		add	r3, r3, #4
 369:.\Generated_Source\PSoC4/BLE_custom.c ****             if(memcmp(cyBle_customCServ[cyBle_customDisServIndex].
 1121              		.loc 1 369 0
 1122 0102 101C     		mov	r0, r2
 1123 0104 191C     		mov	r1, r3
 1124 0106 0222     		mov	r2, #2
 1125 0108 FFF7FEFF 		bl	memcmp
 1126 010c 031C     		mov	r3, r0
 1127 010e 002B     		cmp	r3, #0
 1128 0110 03D1     		bne	.L45
 372:.\Generated_Source\PSoC4/BLE_custom.c ****             {
 373:.\Generated_Source\PSoC4/BLE_custom.c ****                 flag = 1u;
 1129              		.loc 1 373 0
 1130 0112 3B1C     		mov	r3, r7
 1131 0114 0D33     		add	r3, r3, #13
 1132 0116 0122     		mov	r2, #1
 1133 0118 1A70     		strb	r2, [r3]
ARM GAS  C:\Users\wmd\AppData\Local\Temp\ccygqUpL.s 			page 28


 1134              	.L45:
 374:.\Generated_Source\PSoC4/BLE_custom.c ****             }
 375:.\Generated_Source\PSoC4/BLE_custom.c ****         }
 376:.\Generated_Source\PSoC4/BLE_custom.c ****         
 377:.\Generated_Source\PSoC4/BLE_custom.c ****         if((flag == 1u) && 
 1135              		.loc 1 377 0
 1136 011a 3B1C     		mov	r3, r7
 1137 011c 0D33     		add	r3, r3, #13
 1138 011e 1B78     		ldrb	r3, [r3]
 1139 0120 012B     		cmp	r3, #1
 1140 0122 31D1     		bne	.L46
 378:.\Generated_Source\PSoC4/BLE_custom.c ****            (cyBle_customCServ[cyBle_customDisServIndex].customServChar[cyBle_customDisCharIndex].
 1141              		.loc 1 378 0 discriminator 1
 1142 0124 294B     		ldr	r3, .L49
 1143 0126 1B88     		ldrh	r3, [r3]
 1144 0128 294A     		ldr	r2, .L49+4
 1145 012a 1B01     		lsl	r3, r3, #4
 1146 012c D318     		add	r3, r2, r3
 1147 012e 0833     		add	r3, r3, #8
 1148 0130 5A68     		ldr	r2, [r3, #4]
 1149 0132 284B     		ldr	r3, .L49+8
 1150 0134 1B88     		ldrh	r3, [r3]
 1151 0136 1B01     		lsl	r3, r3, #4
 1152 0138 D318     		add	r3, r2, r3
 1153 013a D968     		ldr	r1, [r3, #12]
 379:.\Generated_Source\PSoC4/BLE_custom.c ****                customServCharDesc[locDescIndex].descHandle == CYBLE_GATT_INVALID_ATTR_HANDLE_VALUE)
 1154              		.loc 1 379 0 discriminator 1
 1155 013c 3B1C     		mov	r3, r7
 1156 013e 0F33     		add	r3, r3, #15
 1157 0140 1A78     		ldrb	r2, [r3]
 1158 0142 131C     		mov	r3, r2
 1159 0144 5B00     		lsl	r3, r3, #1
 1160 0146 9B18     		add	r3, r3, r2
 1161 0148 9B00     		lsl	r3, r3, #2
 1162 014a CB18     		add	r3, r1, r3
 1163 014c 1B88     		ldrh	r3, [r3]
 377:.\Generated_Source\PSoC4/BLE_custom.c ****         if((flag == 1u) && 
 1164              		.loc 1 377 0 discriminator 1
 1165 014e 002B     		cmp	r3, #0
 1166 0150 1AD1     		bne	.L46
 380:.\Generated_Source\PSoC4/BLE_custom.c ****         {
 381:.\Generated_Source\PSoC4/BLE_custom.c ****             cyBle_customCServ[cyBle_customDisServIndex].customServChar[cyBle_customDisCharIndex].
 1167              		.loc 1 381 0
 1168 0152 1E4B     		ldr	r3, .L49
 1169 0154 1B88     		ldrh	r3, [r3]
 1170 0156 1E4A     		ldr	r2, .L49+4
 1171 0158 1B01     		lsl	r3, r3, #4
 1172 015a D318     		add	r3, r2, r3
 1173 015c 0833     		add	r3, r3, #8
 1174 015e 5A68     		ldr	r2, [r3, #4]
 1175 0160 1C4B     		ldr	r3, .L49+8
 1176 0162 1B88     		ldrh	r3, [r3]
 1177 0164 1B01     		lsl	r3, r3, #4
 1178 0166 D318     		add	r3, r2, r3
 1179 0168 D968     		ldr	r1, [r3, #12]
 382:.\Generated_Source\PSoC4/BLE_custom.c ****                 customServCharDesc[locDescIndex].descHandle = discDescrInfo->descrHandle;
 1180              		.loc 1 382 0
ARM GAS  C:\Users\wmd\AppData\Local\Temp\ccygqUpL.s 			page 29


 1181 016a 3B1C     		mov	r3, r7
 1182 016c 0F33     		add	r3, r3, #15
 1183 016e 1A78     		ldrb	r2, [r3]
 1184 0170 131C     		mov	r3, r2
 1185 0172 5B00     		lsl	r3, r3, #1
 1186 0174 9B18     		add	r3, r3, r2
 1187 0176 9B00     		lsl	r3, r3, #2
 1188 0178 CB18     		add	r3, r1, r3
 1189 017a 7A68     		ldr	r2, [r7, #4]
 1190 017c 5288     		ldrh	r2, [r2, #2]
 1191 017e 1A80     		strh	r2, [r3]
 383:.\Generated_Source\PSoC4/BLE_custom.c ****             locReqHandle = 1u;
 1192              		.loc 1 383 0
 1193 0180 3B1C     		mov	r3, r7
 1194 0182 0E33     		add	r3, r3, #14
 1195 0184 0122     		mov	r2, #1
 1196 0186 1A70     		strb	r2, [r3]
 1197              	.L46:
 1198              	.LBE3:
 349:.\Generated_Source\PSoC4/BLE_custom.c ****           customServChar[cyBle_customDisCharIndex].descCount) && (locReqHandle == 0u); locDescIndex
 1199              		.loc 1 349 0
 1200 0188 3B1C     		mov	r3, r7
 1201 018a 0F33     		add	r3, r3, #15
 1202 018c 1A78     		ldrb	r2, [r3]
 1203 018e 3B1C     		mov	r3, r7
 1204 0190 0F33     		add	r3, r3, #15
 1205 0192 0132     		add	r2, r2, #1
 1206 0194 1A70     		strb	r2, [r3]
 1207              	.L43:
 348:.\Generated_Source\PSoC4/BLE_custom.c ****     for(locDescIndex = 0u; (locDescIndex < cyBle_customCServ[cyBle_customDisServIndex].
 1208              		.loc 1 348 0 discriminator 1
 1209 0196 0D4B     		ldr	r3, .L49
 1210 0198 1B88     		ldrh	r3, [r3]
 1211 019a 0D4A     		ldr	r2, .L49+4
 1212 019c 1B01     		lsl	r3, r3, #4
 1213 019e D318     		add	r3, r2, r3
 1214 01a0 0833     		add	r3, r3, #8
 1215 01a2 5A68     		ldr	r2, [r3, #4]
 349:.\Generated_Source\PSoC4/BLE_custom.c ****           customServChar[cyBle_customDisCharIndex].descCount) && (locReqHandle == 0u); locDescIndex
 1216              		.loc 1 349 0 discriminator 1
 1217 01a4 0B4B     		ldr	r3, .L49+8
 1218 01a6 1B88     		ldrh	r3, [r3]
 1219 01a8 1B01     		lsl	r3, r3, #4
 1220 01aa D318     		add	r3, r2, r3
 1221 01ac 9B7A     		ldrb	r3, [r3, #10]
 348:.\Generated_Source\PSoC4/BLE_custom.c ****     for(locDescIndex = 0u; (locDescIndex < cyBle_customCServ[cyBle_customDisServIndex].
 1222              		.loc 1 348 0 discriminator 1
 1223 01ae 3A1C     		mov	r2, r7
 1224 01b0 0F32     		add	r2, r2, #15
 1225 01b2 1278     		ldrb	r2, [r2]
 1226 01b4 9A42     		cmp	r2, r3
 1227 01b6 05D2     		bcs	.L42
 349:.\Generated_Source\PSoC4/BLE_custom.c ****           customServChar[cyBle_customDisCharIndex].descCount) && (locReqHandle == 0u); locDescIndex
 1228              		.loc 1 349 0
 1229 01b8 3B1C     		mov	r3, r7
 1230 01ba 0E33     		add	r3, r3, #14
 1231 01bc 1B78     		ldrb	r3, [r3]
ARM GAS  C:\Users\wmd\AppData\Local\Temp\ccygqUpL.s 			page 30


 1232 01be 002B     		cmp	r3, #0
 1233 01c0 00D1     		bne	.LCB1013
 1234 01c2 2AE7     		b	.L48	@long jump
 1235              	.LCB1013:
 1236              	.L42:
 384:.\Generated_Source\PSoC4/BLE_custom.c ****         }
 385:.\Generated_Source\PSoC4/BLE_custom.c ****     }
 386:.\Generated_Source\PSoC4/BLE_custom.c **** }
 1237              		.loc 1 386 0
 1238 01c4 BD46     		mov	sp, r7
 1239 01c6 04B0     		add	sp, sp, #16
 1240              		@ sp needed
 1241 01c8 80BD     		pop	{r7, pc}
 1242              	.L50:
 1243 01ca C046     		.align	2
 1244              	.L49:
 1245 01cc 00000000 		.word	cyBle_customDisServIndex
 1246 01d0 00000000 		.word	cyBle_customCServ
 1247 01d4 02000000 		.word	cyBle_customDisCharIndex
 1248              		.cfi_endproc
 1249              	.LFE6:
 1250              		.size	CyBle_CustomcDiscoverCharDescriptorsEventHandler, .-CyBle_CustomcDiscoverCharDescriptorsEven
 1251              		.bss
 1252              		.align	2
 1253              	customsLastEndHandle.6105:
 1254 0004 00000000 		.space	4
 1255              		.align	1
 1256              	discoveryLastServ.6106:
 1257 0008 0000     		.space	2
 1258 000a 0000     		.text
 1259              	.Letext0:
 1260              		.file 2 ".\\Generated_Source\\PSoC4\\cytypes.h"
 1261              		.file 3 ".\\Generated_Source\\PSoC4\\BLE_StackGatt.h"
 1262              		.file 4 ".\\Generated_Source\\PSoC4\\BLE_gatt.h"
 1263              		.file 5 ".\\Generated_Source\\PSoC4\\BLE_custom.h"
 1264              		.file 6 ".\\Generated_Source\\PSoC4\\BLE_Stack.h"
 1265              		.file 7 ".\\Generated_Source\\PSoC4\\BLE_eventHandler.h"