ARM GAS  C:\Users\wmd\AppData\Local\Temp\cc7DvBqQ.s 			page 1


   1              		.cpu cortex-m0
   2              		.fpu softvfp
   3              		.eabi_attribute 20, 1
   4              		.eabi_attribute 21, 1
   5              		.eabi_attribute 23, 3
   6              		.eabi_attribute 24, 1
   7              		.eabi_attribute 25, 1
   8              		.eabi_attribute 26, 1
   9              		.eabi_attribute 30, 6
  10              		.eabi_attribute 34, 0
  11              		.eabi_attribute 18, 4
  12              		.code	16
  13              		.file	"main.c"
  14              		.text
  15              	.Ltext0:
  16              		.cfi_sections	.debug_frame
  17              		.section	.text.SendPacket,"ax",%progbits
  18              		.align	2
  19              		.global	SendPacket
  20              		.code	16
  21              		.thumb_func
  22              		.type	SendPacket, %function
  23              	SendPacket:
  24              	.LFB35:
  25              		.file 1 ".\\main.c"
   1:.\main.c      **** /* ========================================
   2:.\main.c      ****  *
   3:.\main.c      ****  * Copyright YOUR COMPANY, THE YEAR
   4:.\main.c      ****  * All Rights Reserved
   5:.\main.c      ****  * UNPUBLISHED, LICENSED SOFTWARE.
   6:.\main.c      ****  *
   7:.\main.c      ****  * CONFIDENTIAL AND PROPRIETARY INFORMATION
   8:.\main.c      ****  * WHICH IS THE PROPERTY OF your company.
   9:.\main.c      ****  *
  10:.\main.c      ****  * ========================================
  11:.\main.c      **** */
  12:.\main.c      **** #include <project.h>
  13:.\main.c      **** 
  14:.\main.c      **** #include "mprintf.h"
  15:.\main.c      **** 
  16:.\main.c      **** 
  17:.\main.c      **** 
  18:.\main.c      **** 
  19:.\main.c      **** /************************************************************************************************/
  20:.\main.c      **** 
  21:.\main.c      **** /* ÂèåÂêëÂëΩ‰ª§, ÂëΩ‰ª§ÂíåÂìçÂ∫îÂÖ±Áî® CMD, Â¶Ç‰∏ã. */
  22:.\main.c      **** 
  23:.\main.c      **** #define  CMD_GET_STATE      0xE1                    /* CYBLE_STATE_T */
  24:.\main.c      **** 
  25:.\main.c      **** #define  CMD_STRT_SCAN      0xA5                    /* ÂìçÂ∫î, 1 byte, 0 ÊàêÂäü, ÂÖ∂‰ªñË°®Á§∫Â§±Ë¥•
  26:.\main.c      **** #define  CMD_STOP_SCAN      0x5A                    /* ÂìçÂ∫î, 1 byte, 0 ÊàêÂäü, ÂÖ∂‰ªñË°®Á§∫Â§±Ë¥•
  27:.\main.c      **** 
  28:.\main.c      **** #define  CMD_CONNECT        0x3C                    /* ÂìçÂ∫î, 1 byte, 0 ÊàêÂäü, ÂÖ∂‰ªñË°®Á§∫Â§±Ë¥•
  29:.\main.c      **** #define  CMD_DISCONNT       0xC3                    /* ÂìçÂ∫î, 1 byte, 0 ÊàêÂäü, ÂÖ∂‰ªñË°®Á§∫Â§±Ë¥•
  30:.\main.c      **** 
  31:.\main.c      **** #define  CMD_ENA_NOTY       0xD2                    /* ÂëΩ‰ª§, 2 byte, attr desc handle; ÂìçÂ∫î, 1b
  32:.\main.c      **** #define  CMD_WRT_NRSP       0x2D                    /* ÂëΩ‰ª§, 2 + var byte, attr handle + var byte
ARM GAS  C:\Users\wmd\AppData\Local\Temp\cc7DvBqQ.s 			page 2


  33:.\main.c      **** 
  34:.\main.c      **** 
  35:.\main.c      **** /* ÂçïÂêë event ‰∏äÊä•. */
  36:.\main.c      **** #define  CMD_EVT_PEER       0x87                    /* SCANING Áä∂ÊÄÅ‰∏ã, ‰∏äÊä•Êâ´ÊèèÂà∞ÁöÑ peer Â
  37:.\main.c      **** #define  CMD_EVT_NOTY       0x78                    /* CONNECT Áä∂ÊÄÅ‰∏ã, ‰∏äÊä•ÁöÑ notify Êï∞ÊçÆ‰ø
  38:.\main.c      **** #define  CMD_EVT_DISC       0x69                    /* CONNECT Áä∂ÊÄÅ‰∏ã, ‰∏äÊä• peer ‰∏ªÂä®Êñ≠ÂºÄË
  39:.\main.c      **** 
  40:.\main.c      **** 
  41:.\main.c      **** /************************************************************************************************/
  42:.\main.c      **** 
  43:.\main.c      **** 
  44:.\main.c      **** void  SendPacket( uint8 cmd, uint8 tlen, uint8 * pdat )
  45:.\main.c      **** {
  26              		.loc 1 45 0
  27              		.cfi_startproc
  28 0000 80B5     		push	{r7, lr}
  29              		.cfi_def_cfa_offset 8
  30              		.cfi_offset 7, -8
  31              		.cfi_offset 14, -4
  32 0002 84B0     		sub	sp, sp, #16
  33              		.cfi_def_cfa_offset 24
  34 0004 00AF     		add	r7, sp, #0
  35              		.cfi_def_cfa_register 7
  36 0006 3A60     		str	r2, [r7]
  37 0008 FB1D     		add	r3, r7, #7
  38 000a 021C     		add	r2, r0, #0
  39 000c 1A70     		strb	r2, [r3]
  40 000e BB1D     		add	r3, r7, #6
  41 0010 0A1C     		add	r2, r1, #0
  42 0012 1A70     		strb	r2, [r3]
  46:.\main.c      ****     int  i;
  47:.\main.c      ****     
  48:.\main.c      ****     UART_UartPutChar( 0xAA );
  43              		.loc 1 48 0
  44 0014 AA20     		mov	r0, #170
  45 0016 FFF7FEFF 		bl	UART_SpiUartWriteTxData
  49:.\main.c      ****     UART_UartPutChar( (uint32)cmd  );
  46              		.loc 1 49 0
  47 001a FB1D     		add	r3, r7, #7
  48 001c 1B78     		ldrb	r3, [r3]
  49 001e 181C     		mov	r0, r3
  50 0020 FFF7FEFF 		bl	UART_SpiUartWriteTxData
  50:.\main.c      ****     UART_UartPutChar( (uint32)tlen  );
  51              		.loc 1 50 0
  52 0024 BB1D     		add	r3, r7, #6
  53 0026 1B78     		ldrb	r3, [r3]
  54 0028 181C     		mov	r0, r3
  55 002a FFF7FEFF 		bl	UART_SpiUartWriteTxData
  51:.\main.c      ****     
  52:.\main.c      ****     for ( i=0; i<tlen; i++ )
  56              		.loc 1 52 0
  57 002e 0023     		mov	r3, #0
  58 0030 FB60     		str	r3, [r7, #12]
  59 0032 09E0     		b	.L2
  60              	.L3:
  53:.\main.c      ****     {
  54:.\main.c      ****         UART_UartPutChar( (uint32)(pdat[i]) );
ARM GAS  C:\Users\wmd\AppData\Local\Temp\cc7DvBqQ.s 			page 3


  61              		.loc 1 54 0 discriminator 2
  62 0034 FB68     		ldr	r3, [r7, #12]
  63 0036 3A68     		ldr	r2, [r7]
  64 0038 D318     		add	r3, r2, r3
  65 003a 1B78     		ldrb	r3, [r3]
  66 003c 181C     		mov	r0, r3
  67 003e FFF7FEFF 		bl	UART_SpiUartWriteTxData
  52:.\main.c      ****     for ( i=0; i<tlen; i++ )
  68              		.loc 1 52 0 discriminator 2
  69 0042 FB68     		ldr	r3, [r7, #12]
  70 0044 0133     		add	r3, r3, #1
  71 0046 FB60     		str	r3, [r7, #12]
  72              	.L2:
  52:.\main.c      ****     for ( i=0; i<tlen; i++ )
  73              		.loc 1 52 0 is_stmt 0 discriminator 1
  74 0048 BB1D     		add	r3, r7, #6
  75 004a 1A78     		ldrb	r2, [r3]
  76 004c FB68     		ldr	r3, [r7, #12]
  77 004e 9A42     		cmp	r2, r3
  78 0050 F0DC     		bgt	.L3
  55:.\main.c      ****     }
  56:.\main.c      ****     
  57:.\main.c      ****     return;
  79              		.loc 1 57 0 is_stmt 1
  80 0052 C046     		mov	r8, r8
  58:.\main.c      **** }
  81              		.loc 1 58 0
  82 0054 BD46     		mov	sp, r7
  83 0056 04B0     		add	sp, sp, #16
  84              		@ sp needed
  85 0058 80BD     		pop	{r7, pc}
  86              		.cfi_endproc
  87              	.LFE35:
  88              		.size	SendPacket, .-SendPacket
  89              		.global	g_cur_cmd
  90 005a C046     		.bss
  91              		.type	g_cur_cmd, %object
  92              		.size	g_cur_cmd, 1
  93              	g_cur_cmd:
  94 0000 00       		.space	1
  95              		.global	g_tstamp
  96 0001 000000   		.align	2
  97              		.type	g_tstamp, %object
  98              		.size	g_tstamp, 4
  99              	g_tstamp:
 100 0004 00000000 		.space	4
 101              		.global	g_stacks
 102              		.align	2
 103              		.type	g_stacks, %object
 104              		.size	g_stacks, 4
 105              	g_stacks:
 106 0008 00000000 		.space	4
 107              		.section	.text.AppCallBack,"ax",%progbits
 108              		.align	2
 109              		.global	AppCallBack
 110              		.code	16
 111              		.thumb_func
ARM GAS  C:\Users\wmd\AppData\Local\Temp\cc7DvBqQ.s 			page 4


 112              		.type	AppCallBack, %function
 113              	AppCallBack:
 114              	.LFB36:
  59:.\main.c      **** 
  60:.\main.c      **** 
  61:.\main.c      **** 
  62:.\main.c      **** /* 
  63:.\main.c      **** 0: init
  64:.\main.c      **** 1: error
  65:.\main.c      **** 2: stack on.
  66:.\main.c      **** 
  67:.\main.c      **** 3: scaning
  68:.\main.c      **** */
  69:.\main.c      **** 
  70:.\main.c      **** 
  71:.\main.c      **** uint8  g_cur_cmd = 0;
  72:.\main.c      **** uint32  g_tstamp = 0;
  73:.\main.c      **** uint32 g_stacks = 0;
  74:.\main.c      **** 
  75:.\main.c      **** /**/
  76:.\main.c      **** void AppCallBack(uint32 event, void *eventParam)
  77:.\main.c      **** {
 115              		.loc 1 77 0
 116              		.cfi_startproc
 117 0000 80B5     		push	{r7, lr}
 118              		.cfi_def_cfa_offset 8
 119              		.cfi_offset 7, -8
 120              		.cfi_offset 14, -4
 121 0002 96B0     		sub	sp, sp, #88
 122              		.cfi_def_cfa_offset 96
 123 0004 00AF     		add	r7, sp, #0
 124              		.cfi_def_cfa_register 7
 125 0006 7860     		str	r0, [r7, #4]
 126 0008 3960     		str	r1, [r7]
  78:.\main.c      ****     uint8  tary[64];
  79:.\main.c      ****     CYBLE_GAPC_ADV_REPORT_T	* advReport;
  80:.\main.c      ****     CYBLE_GATTC_HANDLE_VALUE_NTF_PARAM_T * notify;
  81:.\main.c      ****     CYBLE_GAP_CONN_PARAM_UPDATED_IN_CONTROLLER_T * conrsp;
  82:.\main.c      ****     CYBLE_TO_REASON_CODE_T * preason;
  83:.\main.c      ****     
  84:.\main.c      ****     switch (event)
 127              		.loc 1 84 0
 128 000a 7B68     		ldr	r3, [r7, #4]
 129 000c 522B     		cmp	r3, #82
 130 000e 00D9     		bls	.LCB77
 131 0010 E2E0     		b	.L26	@long jump
 132              	.LCB77:
 133 0012 7B68     		ldr	r3, [r7, #4]
 134 0014 9A00     		lsl	r2, r3, #2
 135 0016 724B     		ldr	r3, .L27
 136 0018 D318     		add	r3, r2, r3
 137 001a 1B68     		ldr	r3, [r3]
 138 001c 9F46     		mov	pc, r3
 139              		.section	.rodata
 140              		.align	2
 141              	.L8:
 142 0000 D8010000 		.word	.L26
ARM GAS  C:\Users\wmd\AppData\Local\Temp\cc7DvBqQ.s 			page 5


 143 0004 1E000000 		.word	.L7
 144 0008 7C010000 		.word	.L9
 145 000c D8010000 		.word	.L26
 146 0010 D8010000 		.word	.L26
 147 0014 D8010000 		.word	.L26
 148 0018 D8010000 		.word	.L26
 149 001c D8010000 		.word	.L26
 150 0020 D8010000 		.word	.L26
 151 0024 D8010000 		.word	.L26
 152 0028 D8010000 		.word	.L26
 153 002c D8010000 		.word	.L26
 154 0030 D8010000 		.word	.L26
 155 0034 D8010000 		.word	.L26
 156 0038 D8010000 		.word	.L26
 157 003c D8010000 		.word	.L26
 158 0040 D8010000 		.word	.L26
 159 0044 D8010000 		.word	.L26
 160 0048 D8010000 		.word	.L26
 161 004c D8010000 		.word	.L26
 162 0050 D8010000 		.word	.L26
 163 0054 D8010000 		.word	.L26
 164 0058 D8010000 		.word	.L26
 165 005c D8010000 		.word	.L26
 166 0060 D8010000 		.word	.L26
 167 0064 D8010000 		.word	.L26
 168 0068 D8010000 		.word	.L26
 169 006c D8010000 		.word	.L26
 170 0070 D8010000 		.word	.L26
 171 0074 D8010000 		.word	.L26
 172 0078 D8010000 		.word	.L26
 173 007c D8010000 		.word	.L26
 174 0080 62000000 		.word	.L10
 175 0084 D8010000 		.word	.L26
 176 0088 D8010000 		.word	.L26
 177 008c D8010000 		.word	.L26
 178 0090 D8010000 		.word	.L26
 179 0094 D8010000 		.word	.L26
 180 0098 D8010000 		.word	.L26
 181 009c C8000000 		.word	.L11
 182 00a0 9E010000 		.word	.L12
 183 00a4 D8010000 		.word	.L26
 184 00a8 D8010000 		.word	.L26
 185 00ac 26000000 		.word	.L13
 186 00b0 D8010000 		.word	.L26
 187 00b4 D8010000 		.word	.L26
 188 00b8 D8010000 		.word	.L26
 189 00bc D8010000 		.word	.L26
 190 00c0 D8010000 		.word	.L26
 191 00c4 D8010000 		.word	.L26
 192 00c8 D8010000 		.word	.L26
 193 00cc D8010000 		.word	.L26
 194 00d0 D8010000 		.word	.L26
 195 00d4 D8010000 		.word	.L26
 196 00d8 D8010000 		.word	.L26
 197 00dc D8010000 		.word	.L26
 198 00e0 D8010000 		.word	.L26
 199 00e4 D8010000 		.word	.L26
ARM GAS  C:\Users\wmd\AppData\Local\Temp\cc7DvBqQ.s 			page 6


 200 00e8 D8010000 		.word	.L26
 201 00ec D8010000 		.word	.L26
 202 00f0 D8010000 		.word	.L26
 203 00f4 D8010000 		.word	.L26
 204 00f8 D8010000 		.word	.L26
 205 00fc D8010000 		.word	.L26
 206 0100 08010000 		.word	.L14
 207 0104 D8010000 		.word	.L26
 208 0108 D8010000 		.word	.L26
 209 010c D8010000 		.word	.L26
 210 0110 D8010000 		.word	.L26
 211 0114 D8010000 		.word	.L26
 212 0118 D8010000 		.word	.L26
 213 011c D8010000 		.word	.L26
 214 0120 D8010000 		.word	.L26
 215 0124 D8010000 		.word	.L26
 216 0128 D8010000 		.word	.L26
 217 012c D8010000 		.word	.L26
 218 0130 D8010000 		.word	.L26
 219 0134 E6000000 		.word	.L16
 220 0138 D8010000 		.word	.L26
 221 013c D8010000 		.word	.L26
 222 0140 D8010000 		.word	.L26
 223 0144 D8010000 		.word	.L26
 224 0148 2A010000 		.word	.L17
 225              		.section	.text.AppCallBack
 226              	.L7:
  85:.\main.c      ****     {
  86:.\main.c      ****         case CYBLE_EVT_STACK_ON:
  87:.\main.c      ****             g_stacks = 2;
 227              		.loc 1 87 0
 228 001e 714B     		ldr	r3, .L27+4
 229 0020 0222     		mov	r2, #2
 230 0022 1A60     		str	r2, [r3]
  88:.\main.c      ****             break;
 231              		.loc 1 88 0
 232 0024 D9E0     		b	.L5
 233              	.L13:
  89:.\main.c      ****         
  90:.\main.c      ****         case CYBLE_EVT_GAPC_SCAN_START_STOP:
  91:.\main.c      ****             if ( g_cur_cmd == CMD_STRT_SCAN )
 234              		.loc 1 91 0
 235 0026 704B     		ldr	r3, .L27+8
 236 0028 1B78     		ldrb	r3, [r3]
 237 002a A52B     		cmp	r3, #165
 238 002c 0CD1     		bne	.L19
  92:.\main.c      ****             {
  93:.\main.c      ****                 tary[0] = *(uint8_t *)eventParam;
 239              		.loc 1 93 0
 240 002e 3B68     		ldr	r3, [r7]
 241 0030 1A78     		ldrb	r2, [r3]
 242 0032 3B1C     		mov	r3, r7
 243 0034 0833     		add	r3, r3, #8
 244 0036 1A70     		strb	r2, [r3]
  94:.\main.c      ****                 SendPacket( CMD_STRT_SCAN, 1, tary );
 245              		.loc 1 94 0
 246 0038 3B1C     		mov	r3, r7
ARM GAS  C:\Users\wmd\AppData\Local\Temp\cc7DvBqQ.s 			page 7


 247 003a 0833     		add	r3, r3, #8
 248 003c A520     		mov	r0, #165
 249 003e 0121     		mov	r1, #1
 250 0040 1A1C     		mov	r2, r3
 251 0042 FFF7FEFF 		bl	SendPacket
  95:.\main.c      ****             }
  96:.\main.c      ****             else
  97:.\main.c      ****             {
  98:.\main.c      ****                 tary[0] = *(uint8_t *)eventParam;
  99:.\main.c      ****                 SendPacket( CMD_STOP_SCAN, 1, tary );
 100:.\main.c      ****             }
 101:.\main.c      ****             // mprintf( "scan action : %d \n", *(uint8_t *)eventParam );
 102:.\main.c      ****             break;
 252              		.loc 1 102 0
 253 0046 C8E0     		b	.L5
 254              	.L19:
  98:.\main.c      ****                 tary[0] = *(uint8_t *)eventParam;
 255              		.loc 1 98 0
 256 0048 3B68     		ldr	r3, [r7]
 257 004a 1A78     		ldrb	r2, [r3]
 258 004c 3B1C     		mov	r3, r7
 259 004e 0833     		add	r3, r3, #8
 260 0050 1A70     		strb	r2, [r3]
  99:.\main.c      ****                 SendPacket( CMD_STOP_SCAN, 1, tary );
 261              		.loc 1 99 0
 262 0052 3B1C     		mov	r3, r7
 263 0054 0833     		add	r3, r3, #8
 264 0056 5A20     		mov	r0, #90
 265 0058 0121     		mov	r1, #1
 266 005a 1A1C     		mov	r2, r3
 267 005c FFF7FEFF 		bl	SendPacket
 268              		.loc 1 102 0
 269 0060 BBE0     		b	.L5
 270              	.L10:
 103:.\main.c      ****         
 104:.\main.c      ****         case CYBLE_EVT_GAPC_SCAN_PROGRESS_RESULT:
 105:.\main.c      ****             advReport = (CYBLE_GAPC_ADV_REPORT_T *) eventParam;
 271              		.loc 1 105 0
 272 0062 3B68     		ldr	r3, [r7]
 273 0064 7B65     		str	r3, [r7, #84]
 106:.\main.c      ****             if( advReport->eventType == CYBLE_GAPC_SCAN_RSP )
 274              		.loc 1 106 0
 275 0066 7B6D     		ldr	r3, [r7, #84]
 276 0068 1B78     		ldrb	r3, [r3]
 277 006a 042B     		cmp	r3, #4
 278 006c 2BD1     		bne	.L21
 107:.\main.c      ****             {
 108:.\main.c      **** #if 0
 109:.\main.c      ****                 mprintf( "scan : %d : %d :%x %x %x %x %x %x\n", advReport->dataLen, 
 110:.\main.c      ****                     advReport->peerAddrType,
 111:.\main.c      ****                     advReport->peerBdAddr[0],
 112:.\main.c      ****                     advReport->peerBdAddr[1],
 113:.\main.c      ****                     advReport->peerBdAddr[2],
 114:.\main.c      ****                     advReport->peerBdAddr[3],
 115:.\main.c      ****                     advReport->peerBdAddr[4],
 116:.\main.c      ****                     advReport->peerBdAddr[5]
 117:.\main.c      ****                 );
ARM GAS  C:\Users\wmd\AppData\Local\Temp\cc7DvBqQ.s 			page 8


 118:.\main.c      **** #else
 119:.\main.c      ****                 tary[0] = advReport->peerBdAddr[0];
 279              		.loc 1 119 0
 280 006e 7B6D     		ldr	r3, [r7, #84]
 281 0070 5B68     		ldr	r3, [r3, #4]
 282 0072 1A78     		ldrb	r2, [r3]
 283 0074 3B1C     		mov	r3, r7
 284 0076 0833     		add	r3, r3, #8
 285 0078 1A70     		strb	r2, [r3]
 120:.\main.c      ****                 tary[1] = advReport->peerBdAddr[1];
 286              		.loc 1 120 0
 287 007a 7B6D     		ldr	r3, [r7, #84]
 288 007c 5B68     		ldr	r3, [r3, #4]
 289 007e 5A78     		ldrb	r2, [r3, #1]
 290 0080 3B1C     		mov	r3, r7
 291 0082 0833     		add	r3, r3, #8
 292 0084 5A70     		strb	r2, [r3, #1]
 121:.\main.c      ****                 tary[2] = advReport->peerBdAddr[2];
 293              		.loc 1 121 0
 294 0086 7B6D     		ldr	r3, [r7, #84]
 295 0088 5B68     		ldr	r3, [r3, #4]
 296 008a 9A78     		ldrb	r2, [r3, #2]
 297 008c 3B1C     		mov	r3, r7
 298 008e 0833     		add	r3, r3, #8
 299 0090 9A70     		strb	r2, [r3, #2]
 122:.\main.c      ****                 tary[3] = advReport->peerBdAddr[3];
 300              		.loc 1 122 0
 301 0092 7B6D     		ldr	r3, [r7, #84]
 302 0094 5B68     		ldr	r3, [r3, #4]
 303 0096 DA78     		ldrb	r2, [r3, #3]
 304 0098 3B1C     		mov	r3, r7
 305 009a 0833     		add	r3, r3, #8
 306 009c DA70     		strb	r2, [r3, #3]
 123:.\main.c      ****                 tary[4] = advReport->peerBdAddr[4];
 307              		.loc 1 123 0
 308 009e 7B6D     		ldr	r3, [r7, #84]
 309 00a0 5B68     		ldr	r3, [r3, #4]
 310 00a2 1A79     		ldrb	r2, [r3, #4]
 311 00a4 3B1C     		mov	r3, r7
 312 00a6 0833     		add	r3, r3, #8
 313 00a8 1A71     		strb	r2, [r3, #4]
 124:.\main.c      ****                 tary[5] = advReport->peerBdAddr[5];
 314              		.loc 1 124 0
 315 00aa 7B6D     		ldr	r3, [r7, #84]
 316 00ac 5B68     		ldr	r3, [r3, #4]
 317 00ae 5A79     		ldrb	r2, [r3, #5]
 318 00b0 3B1C     		mov	r3, r7
 319 00b2 0833     		add	r3, r3, #8
 320 00b4 5A71     		strb	r2, [r3, #5]
 125:.\main.c      ****                 
 126:.\main.c      ****                 SendPacket( CMD_EVT_PEER, 6, tary );
 321              		.loc 1 126 0
 322 00b6 3B1C     		mov	r3, r7
 323 00b8 0833     		add	r3, r3, #8
 324 00ba 8720     		mov	r0, #135
 325 00bc 0621     		mov	r1, #6
 326 00be 1A1C     		mov	r2, r3
ARM GAS  C:\Users\wmd\AppData\Local\Temp\cc7DvBqQ.s 			page 9


 327 00c0 FFF7FEFF 		bl	SendPacket
 127:.\main.c      **** #endif
 128:.\main.c      ****             }
 129:.\main.c      ****             break;
 328              		.loc 1 129 0
 329 00c4 89E0     		b	.L5
 330              	.L21:
 331 00c6 88E0     		b	.L5
 332              	.L11:
 130:.\main.c      ****         
 131:.\main.c      ****         case CYBLE_EVT_GAP_DEVICE_CONNECTED:
 132:.\main.c      ****             conrsp = (CYBLE_GAP_CONN_PARAM_UPDATED_IN_CONTROLLER_T *)eventParam;
 333              		.loc 1 132 0
 334 00c8 3B68     		ldr	r3, [r7]
 335 00ca 3B65     		str	r3, [r7, #80]
 133:.\main.c      ****             // mprintf( "connect rsp : %d\n", conrsp->status );
 134:.\main.c      ****             tary[0] = (uint8)(conrsp->status);
 336              		.loc 1 134 0
 337 00cc 3B6D     		ldr	r3, [r7, #80]
 338 00ce 1A78     		ldrb	r2, [r3]
 339 00d0 3B1C     		mov	r3, r7
 340 00d2 0833     		add	r3, r3, #8
 341 00d4 1A70     		strb	r2, [r3]
 135:.\main.c      ****             SendPacket( CMD_CONNECT, 1, tary );
 342              		.loc 1 135 0
 343 00d6 3B1C     		mov	r3, r7
 344 00d8 0833     		add	r3, r3, #8
 345 00da 3C20     		mov	r0, #60
 346 00dc 0121     		mov	r1, #1
 347 00de 1A1C     		mov	r2, r3
 348 00e0 FFF7FEFF 		bl	SendPacket
 136:.\main.c      ****             break;
 349              		.loc 1 136 0
 350 00e4 79E0     		b	.L5
 351              	.L16:
 137:.\main.c      ****             
 138:.\main.c      ****         case CYBLE_EVT_GATTC_WRITE_RSP:
 139:.\main.c      ****             //mprintf( "notify, enable\n" );
 140:.\main.c      ****             if ( g_cur_cmd == CMD_ENA_NOTY )
 352              		.loc 1 140 0
 353 00e6 404B     		ldr	r3, .L27+8
 354 00e8 1B78     		ldrb	r3, [r3]
 355 00ea D22B     		cmp	r3, #210
 356 00ec 0BD1     		bne	.L22
 141:.\main.c      ****             {
 142:.\main.c      ****                 tary[0] = 0;
 357              		.loc 1 142 0
 358 00ee 3B1C     		mov	r3, r7
 359 00f0 0833     		add	r3, r3, #8
 360 00f2 0022     		mov	r2, #0
 361 00f4 1A70     		strb	r2, [r3]
 143:.\main.c      ****                 SendPacket( CMD_ENA_NOTY, 1, tary );
 362              		.loc 1 143 0
 363 00f6 3B1C     		mov	r3, r7
 364 00f8 0833     		add	r3, r3, #8
 365 00fa D220     		mov	r0, #210
 366 00fc 0121     		mov	r1, #1
ARM GAS  C:\Users\wmd\AppData\Local\Temp\cc7DvBqQ.s 			page 10


 367 00fe 1A1C     		mov	r2, r3
 368 0100 FFF7FEFF 		bl	SendPacket
 144:.\main.c      ****             }
 145:.\main.c      ****             break;
 369              		.loc 1 145 0
 370 0104 69E0     		b	.L5
 371              	.L22:
 372 0106 68E0     		b	.L5
 373              	.L14:
 146:.\main.c      ****         
 147:.\main.c      ****         case CYBLE_EVT_GATTC_ERROR_RSP:
 148:.\main.c      ****             // mprintf( "notify, error rsp\n" );
 149:.\main.c      ****             if ( g_cur_cmd == CMD_ENA_NOTY )
 374              		.loc 1 149 0
 375 0108 374B     		ldr	r3, .L27+8
 376 010a 1B78     		ldrb	r3, [r3]
 377 010c D22B     		cmp	r3, #210
 378 010e 0BD1     		bne	.L23
 150:.\main.c      ****             {
 151:.\main.c      ****                 tary[0] = 1;
 379              		.loc 1 151 0
 380 0110 3B1C     		mov	r3, r7
 381 0112 0833     		add	r3, r3, #8
 382 0114 0122     		mov	r2, #1
 383 0116 1A70     		strb	r2, [r3]
 152:.\main.c      ****                 SendPacket( CMD_ENA_NOTY, 1, tary );
 384              		.loc 1 152 0
 385 0118 3B1C     		mov	r3, r7
 386 011a 0833     		add	r3, r3, #8
 387 011c D220     		mov	r0, #210
 388 011e 0121     		mov	r1, #1
 389 0120 1A1C     		mov	r2, r3
 390 0122 FFF7FEFF 		bl	SendPacket
 153:.\main.c      ****             }
 154:.\main.c      ****             break;
 391              		.loc 1 154 0
 392 0126 58E0     		b	.L5
 393              	.L23:
 394 0128 57E0     		b	.L5
 395              	.L17:
 155:.\main.c      **** 
 156:.\main.c      ****         case CYBLE_EVT_GATTC_HANDLE_VALUE_NTF:
 157:.\main.c      ****             notify = (CYBLE_GATTC_HANDLE_VALUE_NTF_PARAM_T *)eventParam;
 396              		.loc 1 157 0
 397 012a 3B68     		ldr	r3, [r7]
 398 012c FB64     		str	r3, [r7, #76]
 158:.\main.c      **** 
 159:.\main.c      **** #if  0
 160:.\main.c      ****             mprintf( "rrecv NTF : %x,%d, %d : %x %x %x %x %x %x %x %x \n",
 161:.\main.c      ****                 notify->handleValPair.attrHandle,
 162:.\main.c      ****                 notify->handleValPair.value.len,
 163:.\main.c      ****                 notify->handleValPair.value.actualLen,
 164:.\main.c      ****                 notify->handleValPair.value.val[0],
 165:.\main.c      ****                 notify->handleValPair.value.val[1],
 166:.\main.c      ****                 notify->handleValPair.value.val[2],
 167:.\main.c      ****                 notify->handleValPair.value.val[3],
 168:.\main.c      ****                 notify->handleValPair.value.val[4],
ARM GAS  C:\Users\wmd\AppData\Local\Temp\cc7DvBqQ.s 			page 11


 169:.\main.c      ****                 notify->handleValPair.value.val[5],
 170:.\main.c      ****                 notify->handleValPair.value.val[6],
 171:.\main.c      ****                 notify->handleValPair.value.val[7],
 172:.\main.c      ****                 notify->handleValPair.value.val[8]
 173:.\main.c      ****             );
 174:.\main.c      **** #else
 175:.\main.c      ****             tary[0] = notify->handleValPair.attrHandle & 0xff;
 399              		.loc 1 175 0
 400 012e FB6C     		ldr	r3, [r7, #76]
 401 0130 9B89     		ldrh	r3, [r3, #12]
 402 0132 DAB2     		uxtb	r2, r3
 403 0134 3B1C     		mov	r3, r7
 404 0136 0833     		add	r3, r3, #8
 405 0138 1A70     		strb	r2, [r3]
 176:.\main.c      ****             tary[1] = (notify->handleValPair.attrHandle >> 8) & 0xff;
 406              		.loc 1 176 0
 407 013a FB6C     		ldr	r3, [r7, #76]
 408 013c 9B89     		ldrh	r3, [r3, #12]
 409 013e 1B0A     		lsr	r3, r3, #8
 410 0140 9BB2     		uxth	r3, r3
 411 0142 DAB2     		uxtb	r2, r3
 412 0144 3B1C     		mov	r3, r7
 413 0146 0833     		add	r3, r3, #8
 414 0148 5A70     		strb	r2, [r3, #1]
 177:.\main.c      ****             memcpy( &(tary[2]), notify->handleValPair.value.val, notify->handleValPair.value.len );
 415              		.loc 1 177 0
 416 014a FB6C     		ldr	r3, [r7, #76]
 417 014c 5A68     		ldr	r2, [r3, #4]
 418 014e FB6C     		ldr	r3, [r7, #76]
 419 0150 1B89     		ldrh	r3, [r3, #8]
 420 0152 391C     		mov	r1, r7
 421 0154 0831     		add	r1, r1, #8
 422 0156 0231     		add	r1, r1, #2
 423 0158 081C     		mov	r0, r1
 424 015a 111C     		mov	r1, r2
 425 015c 1A1C     		mov	r2, r3
 426 015e FFF7FEFF 		bl	memcpy
 178:.\main.c      ****             SendPacket( CMD_EVT_NOTY, notify->handleValPair.value.len + 2, tary );
 427              		.loc 1 178 0
 428 0162 FB6C     		ldr	r3, [r7, #76]
 429 0164 1B89     		ldrh	r3, [r3, #8]
 430 0166 DBB2     		uxtb	r3, r3
 431 0168 0233     		add	r3, r3, #2
 432 016a DAB2     		uxtb	r2, r3
 433 016c 3B1C     		mov	r3, r7
 434 016e 0833     		add	r3, r3, #8
 435 0170 7820     		mov	r0, #120
 436 0172 111C     		mov	r1, r2
 437 0174 1A1C     		mov	r2, r3
 438 0176 FFF7FEFF 		bl	SendPacket
 179:.\main.c      **** #endif
 180:.\main.c      **** 
 181:.\main.c      ****             break;
 439              		.loc 1 181 0
 440 017a 2EE0     		b	.L5
 441              	.L9:
 182:.\main.c      ****             
ARM GAS  C:\Users\wmd\AppData\Local\Temp\cc7DvBqQ.s 			page 12


 183:.\main.c      ****         case CYBLE_EVT_TIMEOUT:
 184:.\main.c      ****             preason = (CYBLE_TO_REASON_CODE_T *)eventParam;
 442              		.loc 1 184 0
 443 017c 3B68     		ldr	r3, [r7]
 444 017e BB64     		str	r3, [r7, #72]
 185:.\main.c      ****             // mprintf( "time out , %d\n", *preason );
 186:.\main.c      ****             tary[0] = (uint8)(*preason);
 445              		.loc 1 186 0
 446 0180 BB6C     		ldr	r3, [r7, #72]
 447 0182 1A78     		ldrb	r2, [r3]
 448 0184 3B1C     		mov	r3, r7
 449 0186 0833     		add	r3, r3, #8
 450 0188 1A70     		strb	r2, [r3]
 187:.\main.c      ****             SendPacket( g_cur_cmd, 1, tary );
 451              		.loc 1 187 0
 452 018a 174B     		ldr	r3, .L27+8
 453 018c 1A78     		ldrb	r2, [r3]
 454 018e 3B1C     		mov	r3, r7
 455 0190 0833     		add	r3, r3, #8
 456 0192 101C     		mov	r0, r2
 457 0194 0121     		mov	r1, #1
 458 0196 1A1C     		mov	r2, r3
 459 0198 FFF7FEFF 		bl	SendPacket
 188:.\main.c      ****             break;
 460              		.loc 1 188 0
 461 019c 1DE0     		b	.L5
 462              	.L12:
 189:.\main.c      ****         
 190:.\main.c      ****         /* Âú®ËøûÊé•Áä∂ÊÄÅ‰∏ã, Â¶ÇÊûúËÆæÂ§á‰∏ãÁîµ, Ê∂àÂ§±‰∫Ü, ‰ºöËøûÁª≠ÂèëÁîü 2 ‰∏™‰∏ãÈù¢‰∫ã‰ª∂, 66
 191:.\main.c      ****         case CYBLE_EVT_GATT_DISCONNECT_IND:     /* 66 */
 192:.\main.c      ****             break;
 193:.\main.c      ****             
 194:.\main.c      ****         case CYBLE_EVT_GAP_DEVICE_DISCONNECTED: /* 40 */
 195:.\main.c      ****             /* 8 ÊòØËÆæÂ§áÁ´Ø‰∏ãÁîµ,  22 ÊòØ‰∏≠ÂøÉÁ´Ø‰∏ªÂä®Ë∞ÉÁî®‰∫Ü CyBle_GapDisconnect */
 196:.\main.c      ****             // mprintf( "dis connected : %d \n", *(uint8_t *)eventParam );
 197:.\main.c      ****             if ( g_cur_cmd == CMD_DISCONNT )
 463              		.loc 1 197 0
 464 019e 124B     		ldr	r3, .L27+8
 465 01a0 1B78     		ldrb	r3, [r3]
 466 01a2 C32B     		cmp	r3, #195
 467 01a4 0BD1     		bne	.L24
 198:.\main.c      ****             {
 199:.\main.c      ****                 tary[0] = 0;
 468              		.loc 1 199 0
 469 01a6 3B1C     		mov	r3, r7
 470 01a8 0833     		add	r3, r3, #8
 471 01aa 0022     		mov	r2, #0
 472 01ac 1A70     		strb	r2, [r3]
 200:.\main.c      ****                 SendPacket( CMD_DISCONNT, 1, tary );
 473              		.loc 1 200 0
 474 01ae 3B1C     		mov	r3, r7
 475 01b0 0833     		add	r3, r3, #8
 476 01b2 C320     		mov	r0, #195
 477 01b4 0121     		mov	r1, #1
 478 01b6 1A1C     		mov	r2, r3
 479 01b8 FFF7FEFF 		bl	SendPacket
 201:.\main.c      ****             }
ARM GAS  C:\Users\wmd\AppData\Local\Temp\cc7DvBqQ.s 			page 13


 202:.\main.c      ****             else
 203:.\main.c      ****             {
 204:.\main.c      ****                 tary[0] = *(uint8_t *)eventParam;
 205:.\main.c      ****                 SendPacket( CMD_EVT_DISC, 1, tary );
 206:.\main.c      ****             }
 207:.\main.c      ****             break;
 480              		.loc 1 207 0
 481 01bc 0DE0     		b	.L5
 482              	.L24:
 204:.\main.c      ****                 tary[0] = *(uint8_t *)eventParam;
 483              		.loc 1 204 0
 484 01be 3B68     		ldr	r3, [r7]
 485 01c0 1A78     		ldrb	r2, [r3]
 486 01c2 3B1C     		mov	r3, r7
 487 01c4 0833     		add	r3, r3, #8
 488 01c6 1A70     		strb	r2, [r3]
 205:.\main.c      ****                 SendPacket( CMD_EVT_DISC, 1, tary );
 489              		.loc 1 205 0
 490 01c8 3B1C     		mov	r3, r7
 491 01ca 0833     		add	r3, r3, #8
 492 01cc 6920     		mov	r0, #105
 493 01ce 0121     		mov	r1, #1
 494 01d0 1A1C     		mov	r2, r3
 495 01d2 FFF7FEFF 		bl	SendPacket
 496              		.loc 1 207 0
 497 01d6 00E0     		b	.L5
 498              	.L26:
 208:.\main.c      ****             
 209:.\main.c      ****         default:
 210:.\main.c      ****             // mprintf( "other %d\n", event );
 211:.\main.c      ****             break;
 499              		.loc 1 211 0
 500 01d8 C046     		mov	r8, r8
 501              	.L5:
 212:.\main.c      ****     }
 213:.\main.c      **** }
 502              		.loc 1 213 0
 503 01da BD46     		mov	sp, r7
 504 01dc 16B0     		add	sp, sp, #88
 505              		@ sp needed
 506 01de 80BD     		pop	{r7, pc}
 507              	.L28:
 508              		.align	2
 509              	.L27:
 510 01e0 00000000 		.word	.L8
 511 01e4 00000000 		.word	g_stacks
 512 01e8 00000000 		.word	g_cur_cmd
 513              		.cfi_endproc
 514              	.LFE36:
 515              		.size	AppCallBack, .-AppCallBack
 516              		.section	.text.ProcessPacket,"ax",%progbits
 517              		.align	2
 518              		.global	ProcessPacket
 519              		.code	16
 520              		.thumb_func
 521              		.type	ProcessPacket, %function
 522              	ProcessPacket:
ARM GAS  C:\Users\wmd\AppData\Local\Temp\cc7DvBqQ.s 			page 14


 523              	.LFB37:
 214:.\main.c      **** 
 215:.\main.c      **** /*
 216:.\main.c      **** 
 217:.\main.c      **** 0x71 : get state
 218:.\main.c      ****     resp :
 219:.\main.c      **** 
 220:.\main.c      **** 0x55 : start scan.
 221:.\main.c      ****     resp : 
 222:.\main.c      **** 
 223:.\main.c      **** 0x57 : stop scan
 224:.\main.c      **** 
 225:.\main.c      **** 
 226:.\main.c      **** 0x41: enable notify
 227:.\main.c      **** 
 228:.\main.c      **** 0x44: write data
 229:.\main.c      **** 
 230:.\main.c      **** 0xcc arg : connect, arg is a mac addr, 6 bytes.
 231:.\main.c      ****     resp :
 232:.\main.c      **** 
 233:.\main.c      **** 0xcd : disconnect.
 234:.\main.c      **** 
 235:.\main.c      **** 
 236:.\main.c      **** */
 237:.\main.c      **** 
 238:.\main.c      **** void  ProcessPacket( uint8 cmd, uint8 tlen, uint8 * pdat )
 239:.\main.c      **** {
 524              		.loc 1 239 0
 525              		.cfi_startproc
 526 0000 80B5     		push	{r7, lr}
 527              		.cfi_def_cfa_offset 8
 528              		.cfi_offset 7, -8
 529              		.cfi_offset 14, -4
 530 0002 9CB0     		sub	sp, sp, #112
 531              		.cfi_def_cfa_offset 120
 532 0004 00AF     		add	r7, sp, #0
 533              		.cfi_def_cfa_register 7
 534 0006 3A60     		str	r2, [r7]
 535 0008 FB1D     		add	r3, r7, #7
 536 000a 021C     		add	r2, r0, #0
 537 000c 1A70     		strb	r2, [r3]
 538 000e BB1D     		add	r3, r7, #6
 539 0010 0A1C     		add	r2, r1, #0
 540 0012 1A70     		strb	r2, [r3]
 240:.\main.c      ****     uint8  tary[64];
 241:.\main.c      ****     
 242:.\main.c      ****     /* Êó†Êù°‰ª∂ÊâßË°å. */
 243:.\main.c      ****     if ( (tlen == 0) && (cmd == CMD_GET_STATE) )
 541              		.loc 1 243 0
 542 0014 BB1D     		add	r3, r7, #6
 543 0016 1B78     		ldrb	r3, [r3]
 544 0018 002B     		cmp	r3, #0
 545 001a 10D1     		bne	.L30
 546              		.loc 1 243 0 is_stmt 0 discriminator 1
 547 001c FB1D     		add	r3, r7, #7
 548 001e 1B78     		ldrb	r3, [r3]
 549 0020 E12B     		cmp	r3, #225
ARM GAS  C:\Users\wmd\AppData\Local\Temp\cc7DvBqQ.s 			page 15


 550 0022 0CD1     		bne	.L30
 244:.\main.c      ****     {
 245:.\main.c      ****         tary[0] = (uint8)cyBle_state;
 551              		.loc 1 245 0 is_stmt 1
 552 0024 984B     		ldr	r3, .L46
 553 0026 1A78     		ldrb	r2, [r3]
 554 0028 3B1C     		mov	r3, r7
 555 002a 2C33     		add	r3, r3, #44
 556 002c 1A70     		strb	r2, [r3]
 246:.\main.c      ****         SendPacket( CMD_GET_STATE, 1, tary );
 557              		.loc 1 246 0
 558 002e 3B1C     		mov	r3, r7
 559 0030 2C33     		add	r3, r3, #44
 560 0032 E120     		mov	r0, #225
 561 0034 0121     		mov	r1, #1
 562 0036 1A1C     		mov	r2, r3
 563 0038 FFF7FEFF 		bl	SendPacket
 247:.\main.c      ****         return;
 564              		.loc 1 247 0
 565 003c 21E1     		b	.L29
 566              	.L30:
 248:.\main.c      ****     }
 249:.\main.c      ****     
 250:.\main.c      ****     /**/
 251:.\main.c      ****     if ( cmd == CMD_WRT_NRSP )
 567              		.loc 1 251 0
 568 003e FB1D     		add	r3, r7, #7
 569 0040 1B78     		ldrb	r3, [r3]
 570 0042 2D2B     		cmp	r3, #45
 571 0044 45D1     		bne	.L32
 572              	.LBB2:
 252:.\main.c      ****     {
 253:.\main.c      **** 
 254:.\main.c      ****         CYBLE_GATTC_WRITE_CMD_REQ_T  uartTxDataWriteCmd;
 255:.\main.c      ****         uint16  temp;
 256:.\main.c      ****         
 257:.\main.c      ****         /**/
 258:.\main.c      ****         temp = pdat[1];
 573              		.loc 1 258 0
 574 0046 3B68     		ldr	r3, [r7]
 575 0048 0133     		add	r3, r3, #1
 576 004a 1A78     		ldrb	r2, [r3]
 577 004c 3B1C     		mov	r3, r7
 578 004e 6E33     		add	r3, r3, #110
 579 0050 1A80     		strh	r2, [r3]
 259:.\main.c      ****         temp = ( temp << 8 ) | pdat[0];
 580              		.loc 1 259 0
 581 0052 3B1C     		mov	r3, r7
 582 0054 6E33     		add	r3, r3, #110
 583 0056 1B88     		ldrh	r3, [r3]
 584 0058 1B02     		lsl	r3, r3, #8
 585 005a 9AB2     		uxth	r2, r3
 586 005c 3B68     		ldr	r3, [r7]
 587 005e 1B78     		ldrb	r3, [r3]
 588 0060 1343     		orr	r3, r2
 589 0062 9AB2     		uxth	r2, r3
 590 0064 3B1C     		mov	r3, r7
ARM GAS  C:\Users\wmd\AppData\Local\Temp\cc7DvBqQ.s 			page 16


 591 0066 6E33     		add	r3, r3, #110
 592 0068 1A80     		strh	r2, [r3]
 260:.\main.c      ****         
 261:.\main.c      ****         /* variable data string */
 262:.\main.c      ****         uartTxDataWriteCmd.attrHandle = temp;
 593              		.loc 1 262 0
 594 006a 3B1C     		mov	r3, r7
 595 006c 2033     		add	r3, r3, #32
 596 006e 3A1C     		mov	r2, r7
 597 0070 6E32     		add	r2, r2, #110
 598 0072 1288     		ldrh	r2, [r2]
 599 0074 1A81     		strh	r2, [r3, #8]
 263:.\main.c      ****         uartTxDataWriteCmd.value.len = tlen - 2;
 600              		.loc 1 263 0
 601 0076 BB1D     		add	r3, r7, #6
 602 0078 1B78     		ldrb	r3, [r3]
 603 007a 9BB2     		uxth	r3, r3
 604 007c 023B     		sub	r3, r3, #2
 605 007e 9AB2     		uxth	r2, r3
 606 0080 3B1C     		mov	r3, r7
 607 0082 2033     		add	r3, r3, #32
 608 0084 9A80     		strh	r2, [r3, #4]
 264:.\main.c      ****         uartTxDataWriteCmd.value.val = &(pdat[2]);
 609              		.loc 1 264 0
 610 0086 3B68     		ldr	r3, [r7]
 611 0088 9A1C     		add	r2, r3, #2
 612 008a 3B1C     		mov	r3, r7
 613 008c 2033     		add	r3, r3, #32
 614 008e 1A60     		str	r2, [r3]
 265:.\main.c      ****         
 266:.\main.c      ****         /**/
 267:.\main.c      ****         g_cur_cmd = CMD_WRT_NRSP;
 615              		.loc 1 267 0
 616 0090 7E4B     		ldr	r3, .L46+4
 617 0092 2D22     		mov	r2, #45
 618 0094 1A70     		strb	r2, [r3]
 268:.\main.c      ****         CyBle_GattcWriteWithoutResponse(cyBle_connHandle, &uartTxDataWriteCmd );
 619              		.loc 1 268 0
 620 0096 7E4B     		ldr	r3, .L46+8
 621 0098 3A1C     		mov	r2, r7
 622 009a 2032     		add	r2, r2, #32
 623 009c 1978     		ldrb	r1, [r3]
 624 009e 5B78     		ldrb	r3, [r3, #1]
 625 00a0 1B02     		lsl	r3, r3, #8
 626 00a2 1943     		orr	r1, r3
 627 00a4 0023     		mov	r3, #0
 628 00a6 0904     		lsl	r1, r1, #16
 629 00a8 090C     		lsr	r1, r1, #16
 630 00aa 1B0C     		lsr	r3, r3, #16
 631 00ac 1B04     		lsl	r3, r3, #16
 632 00ae 0B43     		orr	r3, r1
 633 00b0 181C     		mov	r0, r3
 634 00b2 111C     		mov	r1, r2
 635 00b4 FFF7FEFF 		bl	CyBle_GattcWriteWithoutResponse
 269:.\main.c      ****         /**/
 270:.\main.c      ****         tary[0] = 0;
 636              		.loc 1 270 0
ARM GAS  C:\Users\wmd\AppData\Local\Temp\cc7DvBqQ.s 			page 17


 637 00b8 3B1C     		mov	r3, r7
 638 00ba 2C33     		add	r3, r3, #44
 639 00bc 0022     		mov	r2, #0
 640 00be 1A70     		strb	r2, [r3]
 271:.\main.c      ****         SendPacket( CMD_WRT_NRSP, 1, tary );
 641              		.loc 1 271 0
 642 00c0 3B1C     		mov	r3, r7
 643 00c2 2C33     		add	r3, r3, #44
 644 00c4 2D20     		mov	r0, #45
 645 00c6 0121     		mov	r1, #1
 646 00c8 1A1C     		mov	r2, r3
 647 00ca FFF7FEFF 		bl	SendPacket
 272:.\main.c      ****         
 273:.\main.c      ****         //mprintf( "recv write uart cmd\n" );
 274:.\main.c      ****         return;
 648              		.loc 1 274 0
 649 00ce C046     		mov	r8, r8
 650 00d0 D7E0     		b	.L29
 651              	.L32:
 652              	.LBE2:
 275:.\main.c      ****     }
 276:.\main.c      ****     
 277:.\main.c      ****     /**/
 278:.\main.c      ****     if ( tlen == 0 )
 653              		.loc 1 278 0
 654 00d2 BB1D     		add	r3, r7, #6
 655 00d4 1B78     		ldrb	r3, [r3]
 656 00d6 002B     		cmp	r3, #0
 657 00d8 52D1     		bne	.L33
 279:.\main.c      ****     {
 280:.\main.c      ****         if ( cmd == CMD_STRT_SCAN )
 658              		.loc 1 280 0
 659 00da FB1D     		add	r3, r7, #7
 660 00dc 1B78     		ldrb	r3, [r3]
 661 00de A52B     		cmp	r3, #165
 662 00e0 16D1     		bne	.L34
 281:.\main.c      ****         {
 282:.\main.c      ****             if ( cyBle_state == CYBLE_STATE_SCANNING )
 663              		.loc 1 282 0
 664 00e2 694B     		ldr	r3, .L46
 665 00e4 1B78     		ldrb	r3, [r3]
 666 00e6 032B     		cmp	r3, #3
 667 00e8 0BD1     		bne	.L35
 283:.\main.c      ****             {
 284:.\main.c      ****                 tary[0] = 1;
 668              		.loc 1 284 0
 669 00ea 3B1C     		mov	r3, r7
 670 00ec 2C33     		add	r3, r3, #44
 671 00ee 0122     		mov	r2, #1
 672 00f0 1A70     		strb	r2, [r3]
 285:.\main.c      ****                 SendPacket( CMD_STRT_SCAN, 1, tary );
 673              		.loc 1 285 0
 674 00f2 3B1C     		mov	r3, r7
 675 00f4 2C33     		add	r3, r3, #44
 676 00f6 A520     		mov	r0, #165
 677 00f8 0121     		mov	r1, #1
 678 00fa 1A1C     		mov	r2, r3
ARM GAS  C:\Users\wmd\AppData\Local\Temp\cc7DvBqQ.s 			page 18


 679 00fc FFF7FEFF 		bl	SendPacket
 680 0100 BEE0     		b	.L42
 681              	.L35:
 286:.\main.c      ****             }
 287:.\main.c      ****             else
 288:.\main.c      ****             {
 289:.\main.c      ****                 // mprintf( "recv start scan cmd\n" );
 290:.\main.c      ****                 g_cur_cmd = CMD_STRT_SCAN;
 682              		.loc 1 290 0
 683 0102 624B     		ldr	r3, .L46+4
 684 0104 A522     		mov	r2, #165
 685 0106 1A70     		strb	r2, [r3]
 291:.\main.c      ****                 CyBle_GapcStartScan( CYBLE_SCANNING_FAST );
 686              		.loc 1 291 0
 687 0108 0020     		mov	r0, #0
 688 010a FFF7FEFF 		bl	CyBle_GapcStartScan
 689 010e B7E0     		b	.L42
 690              	.L34:
 292:.\main.c      ****             }
 293:.\main.c      ****         }
 294:.\main.c      ****         else if ( cmd == CMD_STOP_SCAN )
 691              		.loc 1 294 0
 692 0110 FB1D     		add	r3, r7, #7
 693 0112 1B78     		ldrb	r3, [r3]
 694 0114 5A2B     		cmp	r3, #90
 695 0116 15D1     		bne	.L38
 295:.\main.c      ****         {
 296:.\main.c      ****             if ( cyBle_state != CYBLE_STATE_SCANNING )
 696              		.loc 1 296 0
 697 0118 5B4B     		ldr	r3, .L46
 698 011a 1B78     		ldrb	r3, [r3]
 699 011c 032B     		cmp	r3, #3
 700 011e 0BD0     		beq	.L39
 297:.\main.c      ****             {
 298:.\main.c      ****                 tary[0] = 1;
 701              		.loc 1 298 0
 702 0120 3B1C     		mov	r3, r7
 703 0122 2C33     		add	r3, r3, #44
 704 0124 0122     		mov	r2, #1
 705 0126 1A70     		strb	r2, [r3]
 299:.\main.c      ****                 SendPacket( CMD_STOP_SCAN, 1, tary );
 706              		.loc 1 299 0
 707 0128 3B1C     		mov	r3, r7
 708 012a 2C33     		add	r3, r3, #44
 709 012c 5A20     		mov	r0, #90
 710 012e 0121     		mov	r1, #1
 711 0130 1A1C     		mov	r2, r3
 712 0132 FFF7FEFF 		bl	SendPacket
 713 0136 A3E0     		b	.L42
 714              	.L39:
 300:.\main.c      ****             }
 301:.\main.c      ****             else
 302:.\main.c      ****             {
 303:.\main.c      ****                 // mprintf( "recv stop scan cmd\n" );
 304:.\main.c      ****                 g_cur_cmd = CMD_STOP_SCAN;
 715              		.loc 1 304 0
 716 0138 544B     		ldr	r3, .L46+4
ARM GAS  C:\Users\wmd\AppData\Local\Temp\cc7DvBqQ.s 			page 19


 717 013a 5A22     		mov	r2, #90
 718 013c 1A70     		strb	r2, [r3]
 305:.\main.c      ****                 CyBle_GapcStopScan();
 719              		.loc 1 305 0
 720 013e FFF7FEFF 		bl	CyBle_GapcStopScan
 721 0142 9DE0     		b	.L42
 722              	.L38:
 306:.\main.c      ****             }
 307:.\main.c      ****         }
 308:.\main.c      ****         else if ( cmd == CMD_DISCONNT )
 723              		.loc 1 308 0
 724 0144 FB1D     		add	r3, r7, #7
 725 0146 1B78     		ldrb	r3, [r3]
 726 0148 C32B     		cmp	r3, #195
 727 014a 00D0     		beq	.LCB549
 728 014c 98E0     		b	.L42	@long jump
 729              	.LCB549:
 309:.\main.c      ****         {
 310:.\main.c      ****             if ( cyBle_state != CYBLE_STATE_CONNECTED )
 730              		.loc 1 310 0
 731 014e 4E4B     		ldr	r3, .L46
 732 0150 1B78     		ldrb	r3, [r3]
 733 0152 022B     		cmp	r3, #2
 734 0154 0BD0     		beq	.L41
 311:.\main.c      ****             {
 312:.\main.c      ****                 tary[0] = 1;
 735              		.loc 1 312 0
 736 0156 3B1C     		mov	r3, r7
 737 0158 2C33     		add	r3, r3, #44
 738 015a 0122     		mov	r2, #1
 739 015c 1A70     		strb	r2, [r3]
 313:.\main.c      ****                 SendPacket( CMD_DISCONNT, 1, tary );
 740              		.loc 1 313 0
 741 015e 3B1C     		mov	r3, r7
 742 0160 2C33     		add	r3, r3, #44
 743 0162 C320     		mov	r0, #195
 744 0164 0121     		mov	r1, #1
 745 0166 1A1C     		mov	r2, r3
 746 0168 FFF7FEFF 		bl	SendPacket
 747 016c 88E0     		b	.L42
 748              	.L41:
 314:.\main.c      ****             }
 315:.\main.c      ****             else
 316:.\main.c      ****             {
 317:.\main.c      ****                 // mprintf( "recv dis connect cmd\n" );
 318:.\main.c      ****                 g_cur_cmd = CMD_DISCONNT;
 749              		.loc 1 318 0
 750 016e 474B     		ldr	r3, .L46+4
 751 0170 C322     		mov	r2, #195
 752 0172 1A70     		strb	r2, [r3]
 319:.\main.c      ****                 CyBle_GapDisconnect( cyBle_connHandle.bdHandle );
 753              		.loc 1 319 0
 754 0174 464B     		ldr	r3, .L46+8
 755 0176 1B78     		ldrb	r3, [r3]
 756 0178 181C     		mov	r0, r3
 757 017a FFF7FEFF 		bl	CyBle_GapDisconnect
 320:.\main.c      ****             }
ARM GAS  C:\Users\wmd\AppData\Local\Temp\cc7DvBqQ.s 			page 20


 321:.\main.c      ****         }
 322:.\main.c      ****     }
 323:.\main.c      ****     else if (  tlen == 2 )
 324:.\main.c      ****     {
 325:.\main.c      ****         if (  cmd == CMD_ENA_NOTY )
 326:.\main.c      ****         {
 327:.\main.c      ****             uint8 enableNotificationParam[2] = { 0x01, 0x00 };
 328:.\main.c      ****             CYBLE_GATTC_WRITE_REQ_T  enableNotificationReqParam = { {(uint8*)enableNotificationPara
 329:.\main.c      ****             uint16  temp;
 330:.\main.c      ****             
 331:.\main.c      ****             /**/
 332:.\main.c      ****             temp = pdat[1];
 333:.\main.c      ****             temp = ( temp << 8 ) | pdat[0];
 334:.\main.c      ****             
 335:.\main.c      ****             enableNotificationReqParam.attrHandle = temp;
 336:.\main.c      ****             g_cur_cmd = CMD_ENA_NOTY;
 337:.\main.c      ****             CyBle_GattcWriteCharacteristicDescriptors( cyBle_connHandle, (CYBLE_GATTC_WRITE_REQ_T *
 338:.\main.c      ****             // mprintf( "recv enable notify\n" );
 339:.\main.c      ****         }
 340:.\main.c      ****     }
 341:.\main.c      ****     else if ( tlen == 6 )
 342:.\main.c      ****     {
 343:.\main.c      ****         if ( cmd == CMD_CONNECT )
 344:.\main.c      ****         {
 345:.\main.c      ****             CYBLE_GAP_BD_ADDR_T  taddr;
 346:.\main.c      **** 
 347:.\main.c      ****             taddr.type = CYBLE_GAP_ADDR_TYPE_PUBLIC;
 348:.\main.c      ****             taddr.bdAddr[0] = pdat[0];
 349:.\main.c      ****             taddr.bdAddr[1] = pdat[1];
 350:.\main.c      ****             taddr.bdAddr[2] = pdat[2];
 351:.\main.c      ****             taddr.bdAddr[3] = pdat[3];
 352:.\main.c      ****             taddr.bdAddr[4] = pdat[4];
 353:.\main.c      ****             taddr.bdAddr[5] = pdat[5];
 354:.\main.c      ****             
 355:.\main.c      ****             /**/
 356:.\main.c      ****             g_cur_cmd = CMD_CONNECT;
 357:.\main.c      ****             CyBle_GapcConnectDevice( &taddr );
 358:.\main.c      **** 
 359:.\main.c      ****             // mprintf( "recv connect cmd, %d\n", cret  );
 360:.\main.c      ****         }
 361:.\main.c      ****     }
 362:.\main.c      ****     
 363:.\main.c      ****     return;
 758              		.loc 1 363 0
 759 017e 80E0     		b	.L29
 760              	.L33:
 323:.\main.c      ****     else if (  tlen == 2 )
 761              		.loc 1 323 0
 762 0180 BB1D     		add	r3, r7, #6
 763 0182 1B78     		ldrb	r3, [r3]
 764 0184 022B     		cmp	r3, #2
 765 0186 49D1     		bne	.L43
 325:.\main.c      ****         if (  cmd == CMD_ENA_NOTY )
 766              		.loc 1 325 0
 767 0188 FB1D     		add	r3, r7, #7
 768 018a 1B78     		ldrb	r3, [r3]
 769 018c D22B     		cmp	r3, #210
ARM GAS  C:\Users\wmd\AppData\Local\Temp\cc7DvBqQ.s 			page 21


 770 018e 77D1     		bne	.L42
 771              	.LBB3:
 327:.\main.c      ****             uint8 enableNotificationParam[2] = { 0x01, 0x00 };
 772              		.loc 1 327 0
 773 0190 3B1C     		mov	r3, r7
 774 0192 1C33     		add	r3, r3, #28
 775 0194 0122     		mov	r2, #1
 776 0196 1A70     		strb	r2, [r3]
 777 0198 3B1C     		mov	r3, r7
 778 019a 1C33     		add	r3, r3, #28
 779 019c 0022     		mov	r2, #0
 780 019e 5A70     		strb	r2, [r3, #1]
 328:.\main.c      ****             CYBLE_GATTC_WRITE_REQ_T  enableNotificationReqParam = { {(uint8*)enableNotificationPara
 781              		.loc 1 328 0
 782 01a0 3B1C     		mov	r3, r7
 783 01a2 1033     		add	r3, r3, #16
 784 01a4 3A1C     		mov	r2, r7
 785 01a6 1C32     		add	r2, r2, #28
 786 01a8 1A60     		str	r2, [r3]
 787 01aa 3B1C     		mov	r3, r7
 788 01ac 1033     		add	r3, r3, #16
 789 01ae 0222     		mov	r2, #2
 790 01b0 9A80     		strh	r2, [r3, #4]
 791 01b2 3B1C     		mov	r3, r7
 792 01b4 1033     		add	r3, r3, #16
 793 01b6 0222     		mov	r2, #2
 794 01b8 DA80     		strh	r2, [r3, #6]
 795 01ba 3B1C     		mov	r3, r7
 796 01bc 1033     		add	r3, r3, #16
 797 01be 0022     		mov	r2, #0
 798 01c0 1A81     		strh	r2, [r3, #8]
 332:.\main.c      ****             temp = pdat[1];
 799              		.loc 1 332 0
 800 01c2 3B68     		ldr	r3, [r7]
 801 01c4 0133     		add	r3, r3, #1
 802 01c6 1A78     		ldrb	r2, [r3]
 803 01c8 3B1C     		mov	r3, r7
 804 01ca 6C33     		add	r3, r3, #108
 805 01cc 1A80     		strh	r2, [r3]
 333:.\main.c      ****             temp = ( temp << 8 ) | pdat[0];
 806              		.loc 1 333 0
 807 01ce 3B1C     		mov	r3, r7
 808 01d0 6C33     		add	r3, r3, #108
 809 01d2 1B88     		ldrh	r3, [r3]
 810 01d4 1B02     		lsl	r3, r3, #8
 811 01d6 9AB2     		uxth	r2, r3
 812 01d8 3B68     		ldr	r3, [r7]
 813 01da 1B78     		ldrb	r3, [r3]
 814 01dc 1343     		orr	r3, r2
 815 01de 9AB2     		uxth	r2, r3
 816 01e0 3B1C     		mov	r3, r7
 817 01e2 6C33     		add	r3, r3, #108
 818 01e4 1A80     		strh	r2, [r3]
 335:.\main.c      ****             enableNotificationReqParam.attrHandle = temp;
 819              		.loc 1 335 0
 820 01e6 3B1C     		mov	r3, r7
 821 01e8 1033     		add	r3, r3, #16
ARM GAS  C:\Users\wmd\AppData\Local\Temp\cc7DvBqQ.s 			page 22


 822 01ea 3A1C     		mov	r2, r7
 823 01ec 6C32     		add	r2, r2, #108
 824 01ee 1288     		ldrh	r2, [r2]
 825 01f0 1A81     		strh	r2, [r3, #8]
 336:.\main.c      ****             g_cur_cmd = CMD_ENA_NOTY;
 826              		.loc 1 336 0
 827 01f2 264B     		ldr	r3, .L46+4
 828 01f4 D222     		mov	r2, #210
 829 01f6 1A70     		strb	r2, [r3]
 337:.\main.c      ****             CyBle_GattcWriteCharacteristicDescriptors( cyBle_connHandle, (CYBLE_GATTC_WRITE_REQ_T *
 830              		.loc 1 337 0
 831 01f8 254B     		ldr	r3, .L46+8
 832 01fa 3A1C     		mov	r2, r7
 833 01fc 1032     		add	r2, r2, #16
 834 01fe 1978     		ldrb	r1, [r3]
 835 0200 5B78     		ldrb	r3, [r3, #1]
 836 0202 1B02     		lsl	r3, r3, #8
 837 0204 1943     		orr	r1, r3
 838 0206 0023     		mov	r3, #0
 839 0208 0904     		lsl	r1, r1, #16
 840 020a 090C     		lsr	r1, r1, #16
 841 020c 1B0C     		lsr	r3, r3, #16
 842 020e 1B04     		lsl	r3, r3, #16
 843 0210 0B43     		orr	r3, r1
 844 0212 181C     		mov	r0, r3
 845 0214 111C     		mov	r1, r2
 846 0216 FFF7FEFF 		bl	CyBle_GattcWriteCharacteristicDescriptors
 847              	.LBE3:
 848              		.loc 1 363 0
 849 021a 32E0     		b	.L29
 850              	.L43:
 341:.\main.c      ****     else if ( tlen == 6 )
 851              		.loc 1 341 0
 852 021c BB1D     		add	r3, r7, #6
 853 021e 1B78     		ldrb	r3, [r3]
 854 0220 062B     		cmp	r3, #6
 855 0222 2DD1     		bne	.L42
 343:.\main.c      ****         if ( cmd == CMD_CONNECT )
 856              		.loc 1 343 0
 857 0224 FB1D     		add	r3, r7, #7
 858 0226 1B78     		ldrb	r3, [r3]
 859 0228 3C2B     		cmp	r3, #60
 860 022a 29D1     		bne	.L42
 861              	.LBB4:
 347:.\main.c      ****             taddr.type = CYBLE_GAP_ADDR_TYPE_PUBLIC;
 862              		.loc 1 347 0
 863 022c 3B1C     		mov	r3, r7
 864 022e 0833     		add	r3, r3, #8
 865 0230 0022     		mov	r2, #0
 866 0232 9A71     		strb	r2, [r3, #6]
 348:.\main.c      ****             taddr.bdAddr[0] = pdat[0];
 867              		.loc 1 348 0
 868 0234 3B68     		ldr	r3, [r7]
 869 0236 1A78     		ldrb	r2, [r3]
 870 0238 3B1C     		mov	r3, r7
 871 023a 0833     		add	r3, r3, #8
 872 023c 1A70     		strb	r2, [r3]
ARM GAS  C:\Users\wmd\AppData\Local\Temp\cc7DvBqQ.s 			page 23


 349:.\main.c      ****             taddr.bdAddr[1] = pdat[1];
 873              		.loc 1 349 0
 874 023e 3B68     		ldr	r3, [r7]
 875 0240 5A78     		ldrb	r2, [r3, #1]
 876 0242 3B1C     		mov	r3, r7
 877 0244 0833     		add	r3, r3, #8
 878 0246 5A70     		strb	r2, [r3, #1]
 350:.\main.c      ****             taddr.bdAddr[2] = pdat[2];
 879              		.loc 1 350 0
 880 0248 3B68     		ldr	r3, [r7]
 881 024a 9A78     		ldrb	r2, [r3, #2]
 882 024c 3B1C     		mov	r3, r7
 883 024e 0833     		add	r3, r3, #8
 884 0250 9A70     		strb	r2, [r3, #2]
 351:.\main.c      ****             taddr.bdAddr[3] = pdat[3];
 885              		.loc 1 351 0
 886 0252 3B68     		ldr	r3, [r7]
 887 0254 DA78     		ldrb	r2, [r3, #3]
 888 0256 3B1C     		mov	r3, r7
 889 0258 0833     		add	r3, r3, #8
 890 025a DA70     		strb	r2, [r3, #3]
 352:.\main.c      ****             taddr.bdAddr[4] = pdat[4];
 891              		.loc 1 352 0
 892 025c 3B68     		ldr	r3, [r7]
 893 025e 1A79     		ldrb	r2, [r3, #4]
 894 0260 3B1C     		mov	r3, r7
 895 0262 0833     		add	r3, r3, #8
 896 0264 1A71     		strb	r2, [r3, #4]
 353:.\main.c      ****             taddr.bdAddr[5] = pdat[5];
 897              		.loc 1 353 0
 898 0266 3B68     		ldr	r3, [r7]
 899 0268 5A79     		ldrb	r2, [r3, #5]
 900 026a 3B1C     		mov	r3, r7
 901 026c 0833     		add	r3, r3, #8
 902 026e 5A71     		strb	r2, [r3, #5]
 356:.\main.c      ****             g_cur_cmd = CMD_CONNECT;
 903              		.loc 1 356 0
 904 0270 064B     		ldr	r3, .L46+4
 905 0272 3C22     		mov	r2, #60
 906 0274 1A70     		strb	r2, [r3]
 357:.\main.c      ****             CyBle_GapcConnectDevice( &taddr );
 907              		.loc 1 357 0
 908 0276 3B1C     		mov	r3, r7
 909 0278 0833     		add	r3, r3, #8
 910 027a 181C     		mov	r0, r3
 911 027c FFF7FEFF 		bl	CyBle_GapcConnectDevice
 912              	.L42:
 913              	.LBE4:
 914              		.loc 1 363 0
 915 0280 C046     		mov	r8, r8
 916              	.L29:
 364:.\main.c      **** }
 917              		.loc 1 364 0
 918 0282 BD46     		mov	sp, r7
 919 0284 1CB0     		add	sp, sp, #112
 920              		@ sp needed
 921 0286 80BD     		pop	{r7, pc}
ARM GAS  C:\Users\wmd\AppData\Local\Temp\cc7DvBqQ.s 			page 24


 922              	.L47:
 923              		.align	2
 924              	.L46:
 925 0288 00000000 		.word	cyBle_state
 926 028c 00000000 		.word	g_cur_cmd
 927 0290 00000000 		.word	cyBle_connHandle
 928              		.cfi_endproc
 929              	.LFE37:
 930              		.size	ProcessPacket, .-ProcessPacket
 931              		.section	.text.ProcessOneByte,"ax",%progbits
 932              		.align	2
 933              		.global	ProcessOneByte
 934              		.code	16
 935              		.thumb_func
 936              		.type	ProcessOneByte, %function
 937              	ProcessOneByte:
 938              	.LFB38:
 365:.\main.c      **** 
 366:.\main.c      **** 
 367:.\main.c      **** void  ProcessOneByte( uint8 data )
 368:.\main.c      **** {
 939              		.loc 1 368 0
 940              		.cfi_startproc
 941 0000 80B5     		push	{r7, lr}
 942              		.cfi_def_cfa_offset 8
 943              		.cfi_offset 7, -8
 944              		.cfi_offset 14, -4
 945 0002 82B0     		sub	sp, sp, #8
 946              		.cfi_def_cfa_offset 16
 947 0004 00AF     		add	r7, sp, #0
 948              		.cfi_def_cfa_register 7
 949 0006 021C     		mov	r2, r0
 950 0008 FB1D     		add	r3, r7, #7
 951 000a 1A70     		strb	r2, [r3]
 369:.\main.c      ****     static uint32  state = 0;
 370:.\main.c      ****     static uint32  rlen = 0;
 371:.\main.c      ****     static uint32  rofs = 0;
 372:.\main.c      ****     static uint8  tcmd;
 373:.\main.c      ****     static uint8  rbuf[64];
 374:.\main.c      **** 
 375:.\main.c      ****     switch( state )
 952              		.loc 1 375 0
 953 000c 3E4B     		ldr	r3, .L64
 954 000e 1B68     		ldr	r3, [r3]
 955 0010 012B     		cmp	r3, #1
 956 0012 0ED0     		beq	.L50
 957 0014 04D3     		bcc	.L51
 958 0016 022B     		cmp	r3, #2
 959 0018 24D0     		beq	.L52
 960 001a 032B     		cmp	r3, #3
 961 001c 4ED0     		beq	.L53
 376:.\main.c      ****     {
 377:.\main.c      ****     case 0:
 378:.\main.c      ****         if ( data == 0xAA )
 379:.\main.c      ****         {
 380:.\main.c      ****             state = 1;
 381:.\main.c      ****         }
ARM GAS  C:\Users\wmd\AppData\Local\Temp\cc7DvBqQ.s 			page 25


 382:.\main.c      ****         break;
 383:.\main.c      ****     
 384:.\main.c      ****     case 1:
 385:.\main.c      ****         /* CMD */
 386:.\main.c      ****         if ( (((data >> 4) ^ data) & 0xF) == 0xF )
 387:.\main.c      ****         {
 388:.\main.c      ****             tcmd = data;
 389:.\main.c      ****             state = 2;
 390:.\main.c      ****         }
 391:.\main.c      ****         else
 392:.\main.c      ****         {
 393:.\main.c      ****             state = 0;
 394:.\main.c      ****         }
 395:.\main.c      ****         break;
 396:.\main.c      ****     
 397:.\main.c      ****     
 398:.\main.c      ****     case 2:
 399:.\main.c      ****         if ( data == 0 )
 400:.\main.c      ****         {
 401:.\main.c      ****             ProcessPacket( tcmd, 0, rbuf );
 402:.\main.c      ****             state = 0;
 403:.\main.c      ****         }
 404:.\main.c      ****         else if ( data < 64 )
 405:.\main.c      ****         {
 406:.\main.c      ****             rlen = data;
 407:.\main.c      ****             rofs = 0;
 408:.\main.c      ****             state = 3;
 409:.\main.c      ****         }
 410:.\main.c      ****         else if ( data == 0xAA )
 411:.\main.c      ****         {
 412:.\main.c      ****             state = 1;
 413:.\main.c      ****         }
 414:.\main.c      ****         else
 415:.\main.c      ****         {
 416:.\main.c      ****             state = 0;
 417:.\main.c      ****         }
 418:.\main.c      ****         break;
 419:.\main.c      ****         
 420:.\main.c      ****     case 3:
 421:.\main.c      ****         rbuf[rofs] = data;
 422:.\main.c      ****         rofs += 1;
 423:.\main.c      ****         
 424:.\main.c      ****         if ( rofs >= rlen )
 425:.\main.c      ****         {
 426:.\main.c      ****             ProcessPacket( tcmd, rlen, rbuf );
 427:.\main.c      ****             
 428:.\main.c      ****             /**/
 429:.\main.c      ****             state = 0;
 430:.\main.c      ****         }
 431:.\main.c      ****         
 432:.\main.c      ****         break;
 433:.\main.c      ****     }
 434:.\main.c      ****     
 435:.\main.c      ****     return;
 962              		.loc 1 435 0
 963 001e 6FE0     		b	.L48
 964              	.L51:
ARM GAS  C:\Users\wmd\AppData\Local\Temp\cc7DvBqQ.s 			page 26


 378:.\main.c      ****         if ( data == 0xAA )
 965              		.loc 1 378 0
 966 0020 FB1D     		add	r3, r7, #7
 967 0022 1B78     		ldrb	r3, [r3]
 968 0024 AA2B     		cmp	r3, #170
 969 0026 03D1     		bne	.L54
 380:.\main.c      ****             state = 1;
 970              		.loc 1 380 0
 971 0028 374B     		ldr	r3, .L64
 972 002a 0122     		mov	r2, #1
 973 002c 1A60     		str	r2, [r3]
 382:.\main.c      ****         break;
 974              		.loc 1 382 0
 975 002e 66E0     		b	.L49
 976              	.L54:
 977 0030 65E0     		b	.L49
 978              	.L50:
 386:.\main.c      ****         if ( (((data >> 4) ^ data) & 0xF) == 0xF )
 979              		.loc 1 386 0
 980 0032 FB1D     		add	r3, r7, #7
 981 0034 1B78     		ldrb	r3, [r3]
 982 0036 1B09     		lsr	r3, r3, #4
 983 0038 DAB2     		uxtb	r2, r3
 984 003a FB1D     		add	r3, r7, #7
 985 003c 1B78     		ldrb	r3, [r3]
 986 003e 5340     		eor	r3, r2
 987 0040 DBB2     		uxtb	r3, r3
 988 0042 1A1C     		mov	r2, r3
 989 0044 0F23     		mov	r3, #15
 990 0046 1340     		and	r3, r2
 991 0048 0F2B     		cmp	r3, #15
 992 004a 07D1     		bne	.L55
 388:.\main.c      ****             tcmd = data;
 993              		.loc 1 388 0
 994 004c 2F4B     		ldr	r3, .L64+4
 995 004e FA1D     		add	r2, r7, #7
 996 0050 1278     		ldrb	r2, [r2]
 997 0052 1A70     		strb	r2, [r3]
 389:.\main.c      ****             state = 2;
 998              		.loc 1 389 0
 999 0054 2C4B     		ldr	r3, .L64
 1000 0056 0222     		mov	r2, #2
 1001 0058 1A60     		str	r2, [r3]
 395:.\main.c      ****         break;
 1002              		.loc 1 395 0
 1003 005a 50E0     		b	.L49
 1004              	.L55:
 393:.\main.c      ****             state = 0;
 1005              		.loc 1 393 0
 1006 005c 2A4B     		ldr	r3, .L64
 1007 005e 0022     		mov	r2, #0
 1008 0060 1A60     		str	r2, [r3]
 395:.\main.c      ****         break;
 1009              		.loc 1 395 0
 1010 0062 4CE0     		b	.L49
 1011              	.L52:
 399:.\main.c      ****         if ( data == 0 )
ARM GAS  C:\Users\wmd\AppData\Local\Temp\cc7DvBqQ.s 			page 27


 1012              		.loc 1 399 0
 1013 0064 FB1D     		add	r3, r7, #7
 1014 0066 1B78     		ldrb	r3, [r3]
 1015 0068 002B     		cmp	r3, #0
 1016 006a 0BD1     		bne	.L57
 401:.\main.c      ****             ProcessPacket( tcmd, 0, rbuf );
 1017              		.loc 1 401 0
 1018 006c 274B     		ldr	r3, .L64+4
 1019 006e 1A78     		ldrb	r2, [r3]
 1020 0070 274B     		ldr	r3, .L64+8
 1021 0072 101C     		mov	r0, r2
 1022 0074 0021     		mov	r1, #0
 1023 0076 1A1C     		mov	r2, r3
 1024 0078 FFF7FEFF 		bl	ProcessPacket
 402:.\main.c      ****             state = 0;
 1025              		.loc 1 402 0
 1026 007c 224B     		ldr	r3, .L64
 1027 007e 0022     		mov	r2, #0
 1028 0080 1A60     		str	r2, [r3]
 1029 0082 1AE0     		b	.L58
 1030              	.L57:
 404:.\main.c      ****         else if ( data < 64 )
 1031              		.loc 1 404 0
 1032 0084 FB1D     		add	r3, r7, #7
 1033 0086 1B78     		ldrb	r3, [r3]
 1034 0088 3F2B     		cmp	r3, #63
 1035 008a 0AD8     		bhi	.L59
 406:.\main.c      ****             rlen = data;
 1036              		.loc 1 406 0
 1037 008c FB1D     		add	r3, r7, #7
 1038 008e 1A78     		ldrb	r2, [r3]
 1039 0090 204B     		ldr	r3, .L64+12
 1040 0092 1A60     		str	r2, [r3]
 407:.\main.c      ****             rofs = 0;
 1041              		.loc 1 407 0
 1042 0094 204B     		ldr	r3, .L64+16
 1043 0096 0022     		mov	r2, #0
 1044 0098 1A60     		str	r2, [r3]
 408:.\main.c      ****             state = 3;
 1045              		.loc 1 408 0
 1046 009a 1B4B     		ldr	r3, .L64
 1047 009c 0322     		mov	r2, #3
 1048 009e 1A60     		str	r2, [r3]
 1049 00a0 0BE0     		b	.L58
 1050              	.L59:
 410:.\main.c      ****         else if ( data == 0xAA )
 1051              		.loc 1 410 0
 1052 00a2 FB1D     		add	r3, r7, #7
 1053 00a4 1B78     		ldrb	r3, [r3]
 1054 00a6 AA2B     		cmp	r3, #170
 1055 00a8 03D1     		bne	.L60
 412:.\main.c      ****             state = 1;
 1056              		.loc 1 412 0
 1057 00aa 174B     		ldr	r3, .L64
 1058 00ac 0122     		mov	r2, #1
 1059 00ae 1A60     		str	r2, [r3]
 1060 00b0 03E0     		b	.L58
ARM GAS  C:\Users\wmd\AppData\Local\Temp\cc7DvBqQ.s 			page 28


 1061              	.L60:
 416:.\main.c      ****             state = 0;
 1062              		.loc 1 416 0
 1063 00b2 154B     		ldr	r3, .L64
 1064 00b4 0022     		mov	r2, #0
 1065 00b6 1A60     		str	r2, [r3]
 418:.\main.c      ****         break;
 1066              		.loc 1 418 0
 1067 00b8 21E0     		b	.L49
 1068              	.L58:
 1069 00ba 20E0     		b	.L49
 1070              	.L53:
 421:.\main.c      ****         rbuf[rofs] = data;
 1071              		.loc 1 421 0
 1072 00bc 164B     		ldr	r3, .L64+16
 1073 00be 1B68     		ldr	r3, [r3]
 1074 00c0 134A     		ldr	r2, .L64+8
 1075 00c2 F91D     		add	r1, r7, #7
 1076 00c4 0978     		ldrb	r1, [r1]
 1077 00c6 D154     		strb	r1, [r2, r3]
 422:.\main.c      ****         rofs += 1;
 1078              		.loc 1 422 0
 1079 00c8 134B     		ldr	r3, .L64+16
 1080 00ca 1B68     		ldr	r3, [r3]
 1081 00cc 5A1C     		add	r2, r3, #1
 1082 00ce 124B     		ldr	r3, .L64+16
 1083 00d0 1A60     		str	r2, [r3]
 424:.\main.c      ****         if ( rofs >= rlen )
 1084              		.loc 1 424 0
 1085 00d2 114B     		ldr	r3, .L64+16
 1086 00d4 1A68     		ldr	r2, [r3]
 1087 00d6 0F4B     		ldr	r3, .L64+12
 1088 00d8 1B68     		ldr	r3, [r3]
 1089 00da 9A42     		cmp	r2, r3
 1090 00dc 0ED3     		bcc	.L61
 426:.\main.c      ****             ProcessPacket( tcmd, rlen, rbuf );
 1091              		.loc 1 426 0
 1092 00de 0B4B     		ldr	r3, .L64+4
 1093 00e0 1978     		ldrb	r1, [r3]
 1094 00e2 0C4B     		ldr	r3, .L64+12
 1095 00e4 1B68     		ldr	r3, [r3]
 1096 00e6 DAB2     		uxtb	r2, r3
 1097 00e8 094B     		ldr	r3, .L64+8
 1098 00ea 081C     		mov	r0, r1
 1099 00ec 111C     		mov	r1, r2
 1100 00ee 1A1C     		mov	r2, r3
 1101 00f0 FFF7FEFF 		bl	ProcessPacket
 429:.\main.c      ****             state = 0;
 1102              		.loc 1 429 0
 1103 00f4 044B     		ldr	r3, .L64
 1104 00f6 0022     		mov	r2, #0
 1105 00f8 1A60     		str	r2, [r3]
 432:.\main.c      ****         break;
 1106              		.loc 1 432 0
 1107 00fa FFE7     		b	.L63
 1108              	.L61:
 1109              	.L63:
ARM GAS  C:\Users\wmd\AppData\Local\Temp\cc7DvBqQ.s 			page 29


 1110 00fc C046     		mov	r8, r8
 1111              	.L49:
 1112              		.loc 1 435 0
 1113 00fe C046     		mov	r8, r8
 1114              	.L48:
 436:.\main.c      **** }
 1115              		.loc 1 436 0
 1116 0100 BD46     		mov	sp, r7
 1117 0102 02B0     		add	sp, sp, #8
 1118              		@ sp needed
 1119 0104 80BD     		pop	{r7, pc}
 1120              	.L65:
 1121 0106 C046     		.align	2
 1122              	.L64:
 1123 0108 0C000000 		.word	state.6630
 1124 010c 10000000 		.word	tcmd.6633
 1125 0110 14000000 		.word	rbuf.6634
 1126 0114 54000000 		.word	rlen.6631
 1127 0118 58000000 		.word	rofs.6632
 1128              		.cfi_endproc
 1129              	.LFE38:
 1130              		.size	ProcessOneByte, .-ProcessOneByte
 1131              		.section	.text.ProcessFromUart,"ax",%progbits
 1132              		.align	2
 1133              		.global	ProcessFromUart
 1134              		.code	16
 1135              		.thumb_func
 1136              		.type	ProcessFromUart, %function
 1137              	ProcessFromUart:
 1138              	.LFB39:
 437:.\main.c      **** 
 438:.\main.c      **** 
 439:.\main.c      **** void  ProcessFromUart( void )
 440:.\main.c      **** {
 1139              		.loc 1 440 0
 1140              		.cfi_startproc
 1141 0000 80B5     		push	{r7, lr}
 1142              		.cfi_def_cfa_offset 8
 1143              		.cfi_offset 7, -8
 1144              		.cfi_offset 14, -4
 1145 0002 84B0     		sub	sp, sp, #16
 1146              		.cfi_def_cfa_offset 24
 1147 0004 00AF     		add	r7, sp, #0
 1148              		.cfi_def_cfa_register 7
 441:.\main.c      ****     uint32  tlen;
 442:.\main.c      ****     uint32  i;
 443:.\main.c      ****     uint8  data;
 444:.\main.c      ****     
 445:.\main.c      ****     /**/
 446:.\main.c      ****     tlen = UART_SpiUartGetRxBufferSize();
 1149              		.loc 1 446 0
 1150 0006 FFF7FEFF 		bl	UART_SpiUartGetRxBufferSize
 1151 000a 031C     		mov	r3, r0
 1152 000c BB60     		str	r3, [r7, #8]
 447:.\main.c      ****     if ( 0 == tlen )
 1153              		.loc 1 447 0
 1154 000e BB68     		ldr	r3, [r7, #8]
ARM GAS  C:\Users\wmd\AppData\Local\Temp\cc7DvBqQ.s 			page 30


 1155 0010 002B     		cmp	r3, #0
 1156 0012 00D1     		bne	.L67
 448:.\main.c      ****     {
 449:.\main.c      ****         return;
 1157              		.loc 1 449 0
 1158 0014 14E0     		b	.L66
 1159              	.L67:
 450:.\main.c      ****     }
 451:.\main.c      ****     
 452:.\main.c      ****     for ( i=0; i<tlen; i++ )
 1160              		.loc 1 452 0
 1161 0016 0023     		mov	r3, #0
 1162 0018 FB60     		str	r3, [r7, #12]
 1163 001a 0CE0     		b	.L69
 1164              	.L70:
 453:.\main.c      ****     {
 454:.\main.c      ****         data = (uint8) UART_UartGetByte();
 1165              		.loc 1 454 0 discriminator 2
 1166 001c FFF7FEFF 		bl	UART_UartGetByte
 1167 0020 021C     		mov	r2, r0
 1168 0022 FB1D     		add	r3, r7, #7
 1169 0024 1A70     		strb	r2, [r3]
 455:.\main.c      ****         ProcessOneByte( data );
 1170              		.loc 1 455 0 discriminator 2
 1171 0026 FB1D     		add	r3, r7, #7
 1172 0028 1B78     		ldrb	r3, [r3]
 1173 002a 181C     		mov	r0, r3
 1174 002c FFF7FEFF 		bl	ProcessOneByte
 452:.\main.c      ****     for ( i=0; i<tlen; i++ )
 1175              		.loc 1 452 0 discriminator 2
 1176 0030 FB68     		ldr	r3, [r7, #12]
 1177 0032 0133     		add	r3, r3, #1
 1178 0034 FB60     		str	r3, [r7, #12]
 1179              	.L69:
 452:.\main.c      ****     for ( i=0; i<tlen; i++ )
 1180              		.loc 1 452 0 is_stmt 0 discriminator 1
 1181 0036 FA68     		ldr	r2, [r7, #12]
 1182 0038 BB68     		ldr	r3, [r7, #8]
 1183 003a 9A42     		cmp	r2, r3
 1184 003c EED3     		bcc	.L70
 456:.\main.c      ****     }
 457:.\main.c      ****     
 458:.\main.c      ****     return;
 1185              		.loc 1 458 0 is_stmt 1
 1186 003e C046     		mov	r8, r8
 1187              	.L66:
 459:.\main.c      **** }
 1188              		.loc 1 459 0
 1189 0040 BD46     		mov	sp, r7
 1190 0042 04B0     		add	sp, sp, #16
 1191              		@ sp needed
 1192 0044 80BD     		pop	{r7, pc}
 1193              		.cfi_endproc
 1194              	.LFE39:
 1195              		.size	ProcessFromUart, .-ProcessFromUart
 1196 0046 C046     		.section	.text.main,"ax",%progbits
 1197              		.align	2
ARM GAS  C:\Users\wmd\AppData\Local\Temp\cc7DvBqQ.s 			page 31


 1198              		.global	main
 1199              		.code	16
 1200              		.thumb_func
 1201              		.type	main, %function
 1202              	main:
 1203              	.LFB40:
 460:.\main.c      **** 
 461:.\main.c      **** 
 462:.\main.c      **** int main()
 463:.\main.c      **** {
 1204              		.loc 1 463 0
 1205              		.cfi_startproc
 1206 0000 90B5     		push	{r4, r7, lr}
 1207              		.cfi_def_cfa_offset 12
 1208              		.cfi_offset 4, -12
 1209              		.cfi_offset 7, -8
 1210              		.cfi_offset 14, -4
 1211 0002 83B0     		sub	sp, sp, #12
 1212              		.cfi_def_cfa_offset 24
 1213 0004 00AF     		add	r7, sp, #0
 1214              		.cfi_def_cfa_register 7
 464:.\main.c      ****     /**/
 465:.\main.c      ****     CYBLE_API_RESULT_T  bleApiResult;
 466:.\main.c      **** 
 467:.\main.c      ****     /* Place your initialization/startup code here (e.g. MyInst_Start()) */
 468:.\main.c      ****     UART_Start();
 1215              		.loc 1 468 0
 1216 0006 FFF7FEFF 		bl	UART_Start
 469:.\main.c      ****     
 470:.\main.c      ****     /* Uncomment this line to enable global interrupts. */
 471:.\main.c      ****     CyGlobalIntEnable;
 1217              		.loc 1 471 0
 1218              	@ 471 ".\main.c" 1
 1219 000a 62B6     		CPSIE   i
 1220              	@ 0 "" 2
 472:.\main.c      ****     
 473:.\main.c      ****     /**/
 474:.\main.c      ****     bleApiResult = CyBle_Start(AppCallBack); 
 1221              		.loc 1 474 0
 1222              		.code	16
 1223 000c BC1D     		add	r4, r7, #6
 1224 000e 0A4B     		ldr	r3, .L74
 1225 0010 181C     		mov	r0, r3
 1226 0012 FFF7FEFF 		bl	CyBle_Start
 1227 0016 031C     		mov	r3, r0
 1228 0018 2380     		strh	r3, [r4]
 475:.\main.c      ****     if ( bleApiResult != CYBLE_ERROR_OK )
 1229              		.loc 1 475 0
 1230 001a BB1D     		add	r3, r7, #6
 1231 001c 1B88     		ldrh	r3, [r3]
 1232 001e 002B     		cmp	r3, #0
 1233 0020 05D0     		beq	.L72
 476:.\main.c      ****     {
 477:.\main.c      ****         g_stacks = 1;
 1234              		.loc 1 477 0
 1235 0022 064B     		ldr	r3, .L74+4
 1236 0024 0122     		mov	r2, #1
ARM GAS  C:\Users\wmd\AppData\Local\Temp\cc7DvBqQ.s 			page 32


 1237 0026 1A60     		str	r2, [r3]
 1238              	.L73:
 478:.\main.c      ****         
 479:.\main.c      ****         for(;;)
 480:.\main.c      ****         {
 481:.\main.c      ****             ProcessFromUart();
 1239              		.loc 1 481 0 discriminator 1
 1240 0028 FFF7FEFF 		bl	ProcessFromUart
 482:.\main.c      ****         }
 1241              		.loc 1 482 0 discriminator 1
 1242 002c FCE7     		b	.L73
 1243              	.L72:
 483:.\main.c      ****     }
 484:.\main.c      **** 
 485:.\main.c      ****     /**/
 486:.\main.c      ****     for(;;)
 487:.\main.c      ****     {
 488:.\main.c      ****         /* Place your application code here. */
 489:.\main.c      ****         CyBle_ProcessEvents();
 1244              		.loc 1 489 0 discriminator 1
 1245 002e FFF7FEFF 		bl	CyBle_ProcessEvents
 490:.\main.c      ****         ProcessFromUart();
 1246              		.loc 1 490 0 discriminator 1
 1247 0032 FFF7FEFF 		bl	ProcessFromUart
 491:.\main.c      ****     }
 1248              		.loc 1 491 0 discriminator 1
 1249 0036 FAE7     		b	.L72
 1250              	.L75:
 1251              		.align	2
 1252              	.L74:
 1253 0038 00000000 		.word	AppCallBack
 1254 003c 00000000 		.word	g_stacks
 1255              		.cfi_endproc
 1256              	.LFE40:
 1257              		.size	main, .-main
 1258              		.bss
 1259              		.align	2
 1260              	state.6630:
 1261 000c 00000000 		.space	4
 1262              	tcmd.6633:
 1263 0010 00       		.space	1
 1264 0011 000000   		.align	2
 1265              	rbuf.6634:
 1266 0014 00000000 		.space	64
 1266      00000000 
 1266      00000000 
 1266      00000000 
 1266      00000000 
 1267              		.align	2
 1268              	rlen.6631:
 1269 0054 00000000 		.space	4
 1270              		.align	2
 1271              	rofs.6632:
 1272 0058 00000000 		.space	4
 1273              		.text
 1274              	.Letext0:
 1275              		.file 2 "c:\\program files\\cypress\\psoc creator\\3.2\\psoc creator\\import\\gnu\\arm\\4.8.4\\arm
ARM GAS  C:\Users\wmd\AppData\Local\Temp\cc7DvBqQ.s 			page 33


 1276              		.file 3 "c:\\program files\\cypress\\psoc creator\\3.2\\psoc creator\\import\\gnu\\arm\\4.8.4\\arm
 1277              		.file 4 "Generated_Source\\PSoC4/cytypes.h"
 1278              		.file 5 "Generated_Source\\PSoC4/BLE_Stack.h"
 1279              		.file 6 "Generated_Source\\PSoC4/BLE_StackHostMain.h"
 1280              		.file 7 "Generated_Source\\PSoC4/BLE_StackGap.h"
 1281              		.file 8 "Generated_Source\\PSoC4/BLE_StackGatt.h"
 1282              		.file 9 "Generated_Source\\PSoC4/BLE_StackGattClient.h"
 1283              		.file 10 "Generated_Source\\PSoC4/BLE_eventHandler.h"