ARM GAS  C:\Users\wmd\AppData\Local\Temp\ccmtU3om.s 			page 1


   1              		.cpu cortex-m0
   2              		.fpu softvfp
   3              		.eabi_attribute 20, 1
   4              		.eabi_attribute 21, 1
   5              		.eabi_attribute 23, 3
   6              		.eabi_attribute 24, 1
   7              		.eabi_attribute 25, 1
   8              		.eabi_attribute 26, 1
   9              		.eabi_attribute 30, 6
  10              		.eabi_attribute 34, 0
  11              		.eabi_attribute 18, 4
  12              		.code	16
  13              		.file	"mprintf.c"
  14              		.text
  15              	.Ltext0:
  16              		.cfi_sections	.debug_frame
  17              		.global	__aeabi_uidivmod
  18              		.global	__aeabi_uidiv
  19              		.section	.text.itoa,"ax",%progbits
  20              		.align	2
  21              		.code	16
  22              		.thumb_func
  23              		.type	itoa, %function
  24              	itoa:
  25              	.LFB35:
  26              		.file 1 ".\\mprintf.c"
   1:.\mprintf.c   **** 
   2:.\mprintf.c   **** 
   3:.\mprintf.c   **** #define _PRINTF_C_SRC_
   4:.\mprintf.c   **** 
   5:.\mprintf.c   **** /**********************************************************************************
   6:.\mprintf.c   **** **  				            		MODULES USED		  		     		***													  	
   7:.\mprintf.c   **** **********************************************************************************/ 
   8:.\mprintf.c   **** #include <stdint.h>
   9:.\mprintf.c   **** #include <stdarg.h>
  10:.\mprintf.c   **** 
  11:.\mprintf.c   **** #include <project.h>
  12:.\mprintf.c   **** #include "mprintf.h"
  13:.\mprintf.c   **** 
  14:.\mprintf.c   **** 
  15:.\mprintf.c   **** 
  16:.\mprintf.c   **** 
  17:.\mprintf.c   **** /**
  18:.\mprintf.c   ****  * @fn static void itoa(uint32_t val , uint8_t *buf, uint8_t radix)
  19:.\mprintf.c   ****  *	integer to ascii
  20:.\mprintf.c   ****  */
  21:.\mprintf.c   **** static void itoa(uint32_t val , uint8_t *buf, uint8_t radix)
  22:.\mprintf.c   **** {
  27              		.loc 1 22 0
  28              		.cfi_startproc
  29 0000 80B5     		push	{r7, lr}
  30              		.cfi_def_cfa_offset 8
  31              		.cfi_offset 7, -8
  32              		.cfi_offset 14, -4
  33 0002 88B0     		sub	sp, sp, #32
  34              		.cfi_def_cfa_offset 40
  35 0004 00AF     		add	r7, sp, #0
ARM GAS  C:\Users\wmd\AppData\Local\Temp\ccmtU3om.s 			page 2


  36              		.cfi_def_cfa_register 7
  37 0006 F860     		str	r0, [r7, #12]
  38 0008 B960     		str	r1, [r7, #8]
  39 000a FB1D     		add	r3, r7, #7
  40 000c 1A70     		strb	r2, [r3]
  23:.\mprintf.c   ****     uint8_t *p;							// pointer to traverse string         
  24:.\mprintf.c   ****     uint8_t *firstdig;					// pointer to first digit         
  25:.\mprintf.c   ****     uint8_t temp;						// temp char         
  26:.\mprintf.c   ****     uint16_t  digval;					// value of digit        
  27:.\mprintf.c   ****      
  28:.\mprintf.c   ****     p = buf;       
  41              		.loc 1 28 0
  42 000e BB68     		ldr	r3, [r7, #8]
  43 0010 FB61     		str	r3, [r7, #28]
  29:.\mprintf.c   ****     firstdig = p;      				// save pointer to first digit 
  44              		.loc 1 29 0
  45 0012 FB69     		ldr	r3, [r7, #28]
  46 0014 BB61     		str	r3, [r7, #24]
  47              	.L4:
  30:.\mprintf.c   ****      
  31:.\mprintf.c   ****     do 
  32:.\mprintf.c   ****     {            
  33:.\mprintf.c   ****         digval = (val % radix);				
  48              		.loc 1 33 0
  49 0016 FB1D     		add	r3, r7, #7
  50 0018 1B78     		ldrb	r3, [r3]
  51 001a FA68     		ldr	r2, [r7, #12]
  52 001c 101C     		mov	r0, r2
  53 001e 191C     		mov	r1, r3
  54 0020 FFF7FEFF 		bl	__aeabi_uidivmod
  55 0024 0B1C     		mov	r3, r1
  56 0026 1A1C     		mov	r2, r3
  57 0028 3B1C     		mov	r3, r7
  58 002a 1633     		add	r3, r3, #22
  59 002c 1A80     		strh	r2, [r3]
  34:.\mprintf.c   ****         val /= radix;	            
  60              		.loc 1 34 0
  61 002e FB1D     		add	r3, r7, #7
  62 0030 1B78     		ldrb	r3, [r3]
  63 0032 F868     		ldr	r0, [r7, #12]
  64 0034 191C     		mov	r1, r3
  65 0036 FFF7FEFF 		bl	__aeabi_uidiv
  66 003a 031C     		mov	r3, r0
  67 003c FB60     		str	r3, [r7, #12]
  35:.\mprintf.c   **** 
  36:.\mprintf.c   ****         // convert to ascii and store
  37:.\mprintf.c   ****         if (digval > 9)                
  68              		.loc 1 37 0
  69 003e 3B1C     		mov	r3, r7
  70 0040 1633     		add	r3, r3, #22
  71 0042 1B88     		ldrh	r3, [r3]
  72 0044 092B     		cmp	r3, #9
  73 0046 0AD9     		bls	.L2
  38:.\mprintf.c   ****             *p++ = (char) (digval - 10 + 'A');  	// a letter          
  74              		.loc 1 38 0
  75 0048 FB69     		ldr	r3, [r7, #28]
  76 004a 5A1C     		add	r2, r3, #1
ARM GAS  C:\Users\wmd\AppData\Local\Temp\ccmtU3om.s 			page 3


  77 004c FA61     		str	r2, [r7, #28]
  78 004e 3A1C     		mov	r2, r7
  79 0050 1632     		add	r2, r2, #22
  80 0052 1288     		ldrh	r2, [r2]
  81 0054 D2B2     		uxtb	r2, r2
  82 0056 3732     		add	r2, r2, #55
  83 0058 D2B2     		uxtb	r2, r2
  84 005a 1A70     		strb	r2, [r3]
  85 005c 09E0     		b	.L3
  86              	.L2:
  39:.\mprintf.c   ****         else                
  40:.\mprintf.c   ****             *p++ = (char) (digval + '0');      		// a digit        
  87              		.loc 1 40 0
  88 005e FB69     		ldr	r3, [r7, #28]
  89 0060 5A1C     		add	r2, r3, #1
  90 0062 FA61     		str	r2, [r7, #28]
  91 0064 3A1C     		mov	r2, r7
  92 0066 1632     		add	r2, r2, #22
  93 0068 1288     		ldrh	r2, [r2]
  94 006a D2B2     		uxtb	r2, r2
  95 006c 3032     		add	r2, r2, #48
  96 006e D2B2     		uxtb	r2, r2
  97 0070 1A70     		strb	r2, [r3]
  98              	.L3:
  41:.\mprintf.c   ****     } 
  42:.\mprintf.c   ****     while (val > 0);        
  99              		.loc 1 42 0
 100 0072 FB68     		ldr	r3, [r7, #12]
 101 0074 002B     		cmp	r3, #0
 102 0076 CED1     		bne	.L4
  43:.\mprintf.c   **** 
  44:.\mprintf.c   ****     // We now have the digit of the number in the buffer, but in reverse order.  Thus we reverse th
  45:.\mprintf.c   **** 
  46:.\mprintf.c   ****     *p-- = '\0';            	// terminate string; p points to last digit        
 103              		.loc 1 46 0
 104 0078 FB69     		ldr	r3, [r7, #28]
 105 007a 5A1E     		sub	r2, r3, #1
 106 007c FA61     		str	r2, [r7, #28]
 107 007e 0022     		mov	r2, #0
 108 0080 1A70     		strb	r2, [r3]
 109              	.L5:
  47:.\mprintf.c   ****     do
  48:.\mprintf.c   ****     {            
  49:.\mprintf.c   ****             temp = *p;            
 110              		.loc 1 49 0 discriminator 1
 111 0082 3B1C     		mov	r3, r7
 112 0084 1533     		add	r3, r3, #21
 113 0086 FA69     		ldr	r2, [r7, #28]
 114 0088 1278     		ldrb	r2, [r2]
 115 008a 1A70     		strb	r2, [r3]
  50:.\mprintf.c   ****             *p = *firstdig;            
 116              		.loc 1 50 0 discriminator 1
 117 008c BB69     		ldr	r3, [r7, #24]
 118 008e 1A78     		ldrb	r2, [r3]
 119 0090 FB69     		ldr	r3, [r7, #28]
 120 0092 1A70     		strb	r2, [r3]
  51:.\mprintf.c   ****             *firstdig = temp;   // swap *p and *firstdig          
ARM GAS  C:\Users\wmd\AppData\Local\Temp\ccmtU3om.s 			page 4


 121              		.loc 1 51 0 discriminator 1
 122 0094 BB69     		ldr	r3, [r7, #24]
 123 0096 3A1C     		mov	r2, r7
 124 0098 1532     		add	r2, r2, #21
 125 009a 1278     		ldrb	r2, [r2]
 126 009c 1A70     		strb	r2, [r3]
  52:.\mprintf.c   ****             --p;           
 127              		.loc 1 52 0 discriminator 1
 128 009e FB69     		ldr	r3, [r7, #28]
 129 00a0 013B     		sub	r3, r3, #1
 130 00a2 FB61     		str	r3, [r7, #28]
  53:.\mprintf.c   ****             ++firstdig;         	// advance to next two digits       
 131              		.loc 1 53 0 discriminator 1
 132 00a4 BB69     		ldr	r3, [r7, #24]
 133 00a6 0133     		add	r3, r3, #1
 134 00a8 BB61     		str	r3, [r7, #24]
  54:.\mprintf.c   ****        }
  55:.\mprintf.c   ****     while (firstdig < p); 	// repeat until halfway
 135              		.loc 1 55 0 discriminator 1
 136 00aa BA69     		ldr	r2, [r7, #24]
 137 00ac FB69     		ldr	r3, [r7, #28]
 138 00ae 9A42     		cmp	r2, r3
 139 00b0 E7D3     		bcc	.L5
  56:.\mprintf.c   ****     
  57:.\mprintf.c   **** }
 140              		.loc 1 57 0
 141 00b2 BD46     		mov	sp, r7
 142 00b4 08B0     		add	sp, sp, #32
 143              		@ sp needed
 144 00b6 80BD     		pop	{r7, pc}
 145              		.cfi_endproc
 146              	.LFE35:
 147              		.size	itoa, .-itoa
 148              		.section	.text.SerialWriteBuffer,"ax",%progbits
 149              		.align	2
 150              		.code	16
 151              		.thumb_func
 152              		.type	SerialWriteBuffer, %function
 153              	SerialWriteBuffer:
 154              	.LFB36:
  58:.\mprintf.c   **** 
  59:.\mprintf.c   **** 
  60:.\mprintf.c   **** 
  61:.\mprintf.c   **** /**
  62:.\mprintf.c   ****  * @fn static void SerialWriteBuffer(char *str)
  63:.\mprintf.c   ****  *	
  64:.\mprintf.c   ****  */
  65:.\mprintf.c   **** static void SerialWriteBuffer(char *str)
  66:.\mprintf.c   **** {
 155              		.loc 1 66 0
 156              		.cfi_startproc
 157 0000 80B5     		push	{r7, lr}
 158              		.cfi_def_cfa_offset 8
 159              		.cfi_offset 7, -8
 160              		.cfi_offset 14, -4
 161 0002 82B0     		sub	sp, sp, #8
 162              		.cfi_def_cfa_offset 16
ARM GAS  C:\Users\wmd\AppData\Local\Temp\ccmtU3om.s 			page 5


 163 0004 00AF     		add	r7, sp, #0
 164              		.cfi_def_cfa_register 7
 165 0006 7860     		str	r0, [r7, #4]
  67:.\mprintf.c   ****     UART_UartPutString( str );
 166              		.loc 1 67 0
 167 0008 7B68     		ldr	r3, [r7, #4]
 168 000a 181C     		mov	r0, r3
 169 000c FFF7FEFF 		bl	UART_UartPutString
  68:.\mprintf.c   **** }
 170              		.loc 1 68 0
 171 0010 BD46     		mov	sp, r7
 172 0012 02B0     		add	sp, sp, #8
 173              		@ sp needed
 174 0014 80BD     		pop	{r7, pc}
 175              		.cfi_endproc
 176              	.LFE36:
 177              		.size	SerialWriteBuffer, .-SerialWriteBuffer
 178 0016 C046     		.section	.rodata
 179              		.align	2
 180              	.LC0:
 181 0000 0D0A00   		.ascii	"\015\012\000"
 182 0003 00       		.section	.text.mprintf,"ax",%progbits
 183              		.align	2
 184              		.global	mprintf
 185              		.code	16
 186              		.thumb_func
 187              		.type	mprintf, %function
 188              	mprintf:
 189              	.LFB37:
  69:.\mprintf.c   **** 
  70:.\mprintf.c   **** 
  71:.\mprintf.c   **** /**********************************************************************************
  72:.\mprintf.c   **** **					             	EXPORTED FUNCTIONS  		  	          	***													  	
  73:.\mprintf.c   **** **********************************************************************************/
  74:.\mprintf.c   **** 
  75:.\mprintf.c   **** /**
  76:.\mprintf.c   ****  * @fn void mprintf(char *fmt, ...)
  77:.\mprintf.c   ****  * 
  78:.\mprintf.c   ****  */
  79:.\mprintf.c   **** void  mprintf( char *fmt, ... )
  80:.\mprintf.c   **** {
 190              		.loc 1 80 0
 191              		.cfi_startproc
 192 0000 0FB4     		push	{r0, r1, r2, r3}
 193              		.cfi_def_cfa_offset 16
 194 0002 80B5     		push	{r7, lr}
 195              		.cfi_def_cfa_offset 24
 196              		.cfi_offset 7, -24
 197              		.cfi_offset 14, -20
 198 0004 88B0     		sub	sp, sp, #32
 199              		.cfi_def_cfa_offset 56
 200 0006 00AF     		add	r7, sp, #0
 201              		.cfi_def_cfa_register 7
  81:.\mprintf.c   ****   uint8_t *s;
  82:.\mprintf.c   ****   uint32_t d;
  83:.\mprintf.c   ****   uint8_t buf[16];
  84:.\mprintf.c   **** 
ARM GAS  C:\Users\wmd\AppData\Local\Temp\ccmtU3om.s 			page 6


  85:.\mprintf.c   ****   va_list ap;                 // pointer that point to parameter list
  86:.\mprintf.c   ****   va_start(ap, fmt);        // initialize ap
 202              		.loc 1 86 0
 203 0008 3B1C     		mov	r3, r7
 204 000a 2C33     		add	r3, r3, #44
 205 000c 7B60     		str	r3, [r7, #4]
  87:.\mprintf.c   **** 
  88:.\mprintf.c   ****   while(*fmt)
 206              		.loc 1 88 0
 207 000e 88E0     		b	.L8
 208              	.L26:
  89:.\mprintf.c   ****   {
  90:.\mprintf.c   ****     if(*fmt != '%')
 209              		.loc 1 90 0
 210 0010 BB6A     		ldr	r3, [r7, #40]
 211 0012 1B78     		ldrb	r3, [r3]
 212 0014 252B     		cmp	r3, #37
 213 0016 12D0     		beq	.L9
  91:.\mprintf.c   ****     {
  92:.\mprintf.c   ****       if((*fmt == '\r') || (*fmt == '\n'))
 214              		.loc 1 92 0
 215 0018 BB6A     		ldr	r3, [r7, #40]
 216 001a 1B78     		ldrb	r3, [r3]
 217 001c 0D2B     		cmp	r3, #13
 218 001e 03D0     		beq	.L10
 219              		.loc 1 92 0 is_stmt 0 discriminator 1
 220 0020 BB6A     		ldr	r3, [r7, #40]
 221 0022 1B78     		ldrb	r3, [r3]
 222 0024 0A2B     		cmp	r3, #10
 223 0026 04D1     		bne	.L11
 224              	.L10:
  93:.\mprintf.c   ****         SerialWriteBuffer("\r\n");
 225              		.loc 1 93 0 is_stmt 1
 226 0028 434B     		ldr	r3, .L27
 227 002a 181C     		mov	r0, r3
 228 002c FFF7FEFF 		bl	SerialWriteBuffer
 229 0030 74E0     		b	.L13
 230              	.L11:
  94:.\mprintf.c   ****       else
  95:.\mprintf.c   ****         UART_UartPutChar( (uint32) (*fmt) ); 
 231              		.loc 1 95 0
 232 0032 BB6A     		ldr	r3, [r7, #40]
 233 0034 1B78     		ldrb	r3, [r3]
 234 0036 181C     		mov	r0, r3
 235 0038 FFF7FEFF 		bl	UART_SpiUartWriteTxData
 236 003c 6EE0     		b	.L13
 237              	.L9:
  96:.\mprintf.c   ****     }
  97:.\mprintf.c   ****     else
  98:.\mprintf.c   ****     {
  99:.\mprintf.c   ****       switch(*++fmt)
 238              		.loc 1 99 0
 239 003e BB6A     		ldr	r3, [r7, #40]
 240 0040 0133     		add	r3, r3, #1
 241 0042 BB62     		str	r3, [r7, #40]
 242 0044 BB6A     		ldr	r3, [r7, #40]
 243 0046 1B78     		ldrb	r3, [r3]
ARM GAS  C:\Users\wmd\AppData\Local\Temp\ccmtU3om.s 			page 7


 244 0048 642B     		cmp	r3, #100
 245 004a 26D0     		beq	.L15
 246 004c 02DC     		bgt	.L16
 247 004e 632B     		cmp	r3, #99
 248 0050 05D0     		beq	.L17
 249 0052 5EE0     		b	.L14
 250              	.L16:
 251 0054 732B     		cmp	r3, #115
 252 0056 0DD0     		beq	.L18
 253 0058 782B     		cmp	r3, #120
 254 005a 3CD0     		beq	.L19
 255 005c 59E0     		b	.L14
 256              	.L17:
 100:.\mprintf.c   ****       {
 101:.\mprintf.c   ****         case 'c':
 102:.\mprintf.c   ****             s = va_arg(ap, uint8_t *); 
 257              		.loc 1 102 0
 258 005e 7B68     		ldr	r3, [r7, #4]
 259 0060 1A1D     		add	r2, r3, #4
 260 0062 7A60     		str	r2, [r7, #4]
 261 0064 1B68     		ldr	r3, [r3]
 262 0066 FB61     		str	r3, [r7, #28]
 103:.\mprintf.c   ****             UART_UartPutChar((uint32) (*s) );
 263              		.loc 1 103 0
 264 0068 FB69     		ldr	r3, [r7, #28]
 265 006a 1B78     		ldrb	r3, [r3]
 266 006c 181C     		mov	r0, r3
 267 006e FFF7FEFF 		bl	UART_SpiUartWriteTxData
 104:.\mprintf.c   ****             break;
 268              		.loc 1 104 0
 269 0072 53E0     		b	.L13
 270              	.L18:
 105:.\mprintf.c   **** 
 106:.\mprintf.c   ****         case 's':
 107:.\mprintf.c   ****             s = va_arg(ap, uint8_t *);
 271              		.loc 1 107 0
 272 0074 7B68     		ldr	r3, [r7, #4]
 273 0076 1A1D     		add	r2, r3, #4
 274 0078 7A60     		str	r2, [r7, #4]
 275 007a 1B68     		ldr	r3, [r3]
 276 007c FB61     		str	r3, [r7, #28]
 108:.\mprintf.c   ****             for(; *s; s++)
 277              		.loc 1 108 0
 278 007e 07E0     		b	.L20
 279              	.L21:
 109:.\mprintf.c   ****             UART_UartPutChar((uint32) (*s) );
 280              		.loc 1 109 0 discriminator 2
 281 0080 FB69     		ldr	r3, [r7, #28]
 282 0082 1B78     		ldrb	r3, [r3]
 283 0084 181C     		mov	r0, r3
 284 0086 FFF7FEFF 		bl	UART_SpiUartWriteTxData
 108:.\mprintf.c   ****             for(; *s; s++)
 285              		.loc 1 108 0 discriminator 2
 286 008a FB69     		ldr	r3, [r7, #28]
 287 008c 0133     		add	r3, r3, #1
 288 008e FB61     		str	r3, [r7, #28]
 289              	.L20:
ARM GAS  C:\Users\wmd\AppData\Local\Temp\ccmtU3om.s 			page 8


 108:.\mprintf.c   ****             for(; *s; s++)
 290              		.loc 1 108 0 is_stmt 0 discriminator 1
 291 0090 FB69     		ldr	r3, [r7, #28]
 292 0092 1B78     		ldrb	r3, [r3]
 293 0094 002B     		cmp	r3, #0
 294 0096 F3D1     		bne	.L21
 110:.\mprintf.c   ****             break;
 295              		.loc 1 110 0 is_stmt 1
 296 0098 40E0     		b	.L13
 297              	.L15:
 111:.\mprintf.c   **** 
 112:.\mprintf.c   ****         case 'd':
 113:.\mprintf.c   ****             d = va_arg(ap, int);
 298              		.loc 1 113 0
 299 009a 7B68     		ldr	r3, [r7, #4]
 300 009c 1A1D     		add	r2, r3, #4
 301 009e 7A60     		str	r2, [r7, #4]
 302 00a0 1B68     		ldr	r3, [r3]
 303 00a2 BB61     		str	r3, [r7, #24]
 114:.\mprintf.c   ****             itoa(d, buf, 10);       //Converts an int to a character string.
 304              		.loc 1 114 0
 305 00a4 BA69     		ldr	r2, [r7, #24]
 306 00a6 3B1C     		mov	r3, r7
 307 00a8 0833     		add	r3, r3, #8
 308 00aa 101C     		mov	r0, r2
 309 00ac 191C     		mov	r1, r3
 310 00ae 0A22     		mov	r2, #10
 311 00b0 FFF7FEFF 		bl	itoa
 115:.\mprintf.c   ****             for(s = buf; *s; s++)
 312              		.loc 1 115 0
 313 00b4 3B1C     		mov	r3, r7
 314 00b6 0833     		add	r3, r3, #8
 315 00b8 FB61     		str	r3, [r7, #28]
 316 00ba 07E0     		b	.L22
 317              	.L23:
 116:.\mprintf.c   ****             UART_UartPutChar((uint32) (*s));
 318              		.loc 1 116 0 discriminator 2
 319 00bc FB69     		ldr	r3, [r7, #28]
 320 00be 1B78     		ldrb	r3, [r3]
 321 00c0 181C     		mov	r0, r3
 322 00c2 FFF7FEFF 		bl	UART_SpiUartWriteTxData
 115:.\mprintf.c   ****             for(s = buf; *s; s++)
 323              		.loc 1 115 0 discriminator 2
 324 00c6 FB69     		ldr	r3, [r7, #28]
 325 00c8 0133     		add	r3, r3, #1
 326 00ca FB61     		str	r3, [r7, #28]
 327              	.L22:
 115:.\mprintf.c   ****             for(s = buf; *s; s++)
 328              		.loc 1 115 0 is_stmt 0 discriminator 1
 329 00cc FB69     		ldr	r3, [r7, #28]
 330 00ce 1B78     		ldrb	r3, [r3]
 331 00d0 002B     		cmp	r3, #0
 332 00d2 F3D1     		bne	.L23
 117:.\mprintf.c   ****             break;
 333              		.loc 1 117 0 is_stmt 1
 334 00d4 22E0     		b	.L13
 335              	.L19:
ARM GAS  C:\Users\wmd\AppData\Local\Temp\ccmtU3om.s 			page 9


 118:.\mprintf.c   ****   
 119:.\mprintf.c   ****         case 'x':
 120:.\mprintf.c   ****             d = va_arg(ap, int);
 336              		.loc 1 120 0
 337 00d6 7B68     		ldr	r3, [r7, #4]
 338 00d8 1A1D     		add	r2, r3, #4
 339 00da 7A60     		str	r2, [r7, #4]
 340 00dc 1B68     		ldr	r3, [r3]
 341 00de BB61     		str	r3, [r7, #24]
 121:.\mprintf.c   ****             itoa(d, buf, 16);       //Converts an int to a character string.
 342              		.loc 1 121 0
 343 00e0 BA69     		ldr	r2, [r7, #24]
 344 00e2 3B1C     		mov	r3, r7
 345 00e4 0833     		add	r3, r3, #8
 346 00e6 101C     		mov	r0, r2
 347 00e8 191C     		mov	r1, r3
 348 00ea 1022     		mov	r2, #16
 349 00ec FFF7FEFF 		bl	itoa
 122:.\mprintf.c   ****             for(s = buf; *s; s++)
 350              		.loc 1 122 0
 351 00f0 3B1C     		mov	r3, r7
 352 00f2 0833     		add	r3, r3, #8
 353 00f4 FB61     		str	r3, [r7, #28]
 354 00f6 07E0     		b	.L24
 355              	.L25:
 123:.\mprintf.c   ****             UART_UartPutChar((uint32) (*s) );
 356              		.loc 1 123 0 discriminator 2
 357 00f8 FB69     		ldr	r3, [r7, #28]
 358 00fa 1B78     		ldrb	r3, [r3]
 359 00fc 181C     		mov	r0, r3
 360 00fe FFF7FEFF 		bl	UART_SpiUartWriteTxData
 122:.\mprintf.c   ****             for(s = buf; *s; s++)
 361              		.loc 1 122 0 discriminator 2
 362 0102 FB69     		ldr	r3, [r7, #28]
 363 0104 0133     		add	r3, r3, #1
 364 0106 FB61     		str	r3, [r7, #28]
 365              	.L24:
 122:.\mprintf.c   ****             for(s = buf; *s; s++)
 366              		.loc 1 122 0 is_stmt 0 discriminator 1
 367 0108 FB69     		ldr	r3, [r7, #28]
 368 010a 1B78     		ldrb	r3, [r3]
 369 010c 002B     		cmp	r3, #0
 370 010e F3D1     		bne	.L25
 124:.\mprintf.c   ****             break;
 371              		.loc 1 124 0 is_stmt 1
 372 0110 04E0     		b	.L13
 373              	.L14:
 125:.\mprintf.c   ****                 
 126:.\mprintf.c   ****         default:
 127:.\mprintf.c   ****             UART_UartPutChar((uint32) (*fmt));
 374              		.loc 1 127 0
 375 0112 BB6A     		ldr	r3, [r7, #40]
 376 0114 1B78     		ldrb	r3, [r3]
 377 0116 181C     		mov	r0, r3
 378 0118 FFF7FEFF 		bl	UART_SpiUartWriteTxData
 379              	.L13:
 128:.\mprintf.c   ****       }
ARM GAS  C:\Users\wmd\AppData\Local\Temp\ccmtU3om.s 			page 10


 129:.\mprintf.c   ****     }
 130:.\mprintf.c   ****     fmt++;
 380              		.loc 1 130 0
 381 011c BB6A     		ldr	r3, [r7, #40]
 382 011e 0133     		add	r3, r3, #1
 383 0120 BB62     		str	r3, [r7, #40]
 384              	.L8:
  88:.\mprintf.c   ****   while(*fmt)
 385              		.loc 1 88 0 discriminator 1
 386 0122 BB6A     		ldr	r3, [r7, #40]
 387 0124 1B78     		ldrb	r3, [r3]
 388 0126 002B     		cmp	r3, #0
 389 0128 00D0     		beq	.LCB336
 390 012a 71E7     		b	.L26	@long jump
 391              	.LCB336:
 131:.\mprintf.c   ****   }
 132:.\mprintf.c   ****   va_end(ap);
 133:.\mprintf.c   ****   
 134:.\mprintf.c   **** }
 392              		.loc 1 134 0
 393 012c BD46     		mov	sp, r7
 394 012e 08B0     		add	sp, sp, #32
 395              		@ sp needed
 396 0130 80BC     		pop	{r7}
 397 0132 08BC     		pop	{r3}
 398 0134 04B0     		add	sp, sp, #16
 399 0136 1847     		bx	r3
 400              	.L28:
 401              		.align	2
 402              	.L27:
 403 0138 00000000 		.word	.LC0
 404              		.cfi_endproc
 405              	.LFE37:
 406              		.size	mprintf, .-mprintf
 407              		.text
 408              	.Letext0:
 409              		.file 2 "c:\\program files\\cypress\\psoc creator\\3.2\\psoc creator\\import\\gnu\\arm\\4.8.4\\arm
 410              		.file 3 "c:\\program files\\cypress\\psoc creator\\3.2\\psoc creator\\import\\gnu\\arm\\4.8.4\\arm
 411              		.file 4 "c:\\program files\\cypress\\psoc creator\\3.2\\psoc creator\\import\\gnu\\arm\\4.8.4\\lib
 412              		.file 5 "Generated_Source\\PSoC4/cytypes.h"
 413              		.file 6 "<built-in>"