ARM GAS  C:\Users\wmd\AppData\Local\Temp\cc1TEzvH.s 			page 1


   1              		.cpu cortex-m0
   2              		.fpu softvfp
   3              		.eabi_attribute 20, 1
   4              		.eabi_attribute 21, 1
   5              		.eabi_attribute 23, 3
   6              		.eabi_attribute 24, 1
   7              		.eabi_attribute 25, 1
   8              		.eabi_attribute 26, 1
   9              		.eabi_attribute 30, 6
  10              		.eabi_attribute 34, 0
  11              		.eabi_attribute 18, 4
  12              		.code	16
  13              		.file	"UART_SPI_UART.c"
  14              		.text
  15              	.Ltext0:
  16              		.cfi_sections	.debug_frame
  17              		.comm	UART_rxBufferHead,4,4
  18              		.comm	UART_rxBufferTail,4,4
  19              		.comm	UART_rxBufferOverflow,1,1
  20              		.comm	UART_txBufferHead,4,4
  21              		.comm	UART_txBufferTail,4,4
  22              		.comm	UART_rxBufferInternal,2049,4
  23              		.comm	UART_txBufferInternal,1024,4
  24              		.section	.text.UART_SpiUartReadRxData,"ax",%progbits
  25              		.align	2
  26              		.global	UART_SpiUartReadRxData
  27              		.code	16
  28              		.thumb_func
  29              		.type	UART_SpiUartReadRxData, %function
  30              	UART_SpiUartReadRxData:
  31              	.LFB2:
  32              		.file 1 ".\\Generated_Source\\PSoC4\\UART_SPI_UART.c"
   1:.\Generated_Source\PSoC4/UART_SPI_UART.c **** /*******************************************************************************
   2:.\Generated_Source\PSoC4/UART_SPI_UART.c **** * File Name: UART_SPI_UART.c
   3:.\Generated_Source\PSoC4/UART_SPI_UART.c **** * Version 3.0
   4:.\Generated_Source\PSoC4/UART_SPI_UART.c **** *
   5:.\Generated_Source\PSoC4/UART_SPI_UART.c **** * Description:
   6:.\Generated_Source\PSoC4/UART_SPI_UART.c **** *  This file provides the source code to the API for the SCB Component in
   7:.\Generated_Source\PSoC4/UART_SPI_UART.c **** *  SPI and UART modes.
   8:.\Generated_Source\PSoC4/UART_SPI_UART.c **** *
   9:.\Generated_Source\PSoC4/UART_SPI_UART.c **** * Note:
  10:.\Generated_Source\PSoC4/UART_SPI_UART.c **** *
  11:.\Generated_Source\PSoC4/UART_SPI_UART.c **** *******************************************************************************
  12:.\Generated_Source\PSoC4/UART_SPI_UART.c **** * Copyright 2013-2015, Cypress Semiconductor Corporation.  All rights reserved.
  13:.\Generated_Source\PSoC4/UART_SPI_UART.c **** * You may use this file only in accordance with the license, terms, conditions,
  14:.\Generated_Source\PSoC4/UART_SPI_UART.c **** * disclaimers, and limitations in the end user license agreement accompanying
  15:.\Generated_Source\PSoC4/UART_SPI_UART.c **** * the software package with which this file was provided.
  16:.\Generated_Source\PSoC4/UART_SPI_UART.c **** *******************************************************************************/
  17:.\Generated_Source\PSoC4/UART_SPI_UART.c **** 
  18:.\Generated_Source\PSoC4/UART_SPI_UART.c **** #include "UART_PVT.h"
  19:.\Generated_Source\PSoC4/UART_SPI_UART.c **** #include "UART_SPI_UART_PVT.h"
  20:.\Generated_Source\PSoC4/UART_SPI_UART.c **** 
  21:.\Generated_Source\PSoC4/UART_SPI_UART.c **** /***************************************
  22:.\Generated_Source\PSoC4/UART_SPI_UART.c **** *        SPI/UART Private Vars
  23:.\Generated_Source\PSoC4/UART_SPI_UART.c **** ***************************************/
  24:.\Generated_Source\PSoC4/UART_SPI_UART.c **** 
  25:.\Generated_Source\PSoC4/UART_SPI_UART.c **** #if(UART_INTERNAL_RX_SW_BUFFER_CONST)
ARM GAS  C:\Users\wmd\AppData\Local\Temp\cc1TEzvH.s 			page 2


  26:.\Generated_Source\PSoC4/UART_SPI_UART.c ****     volatile uint32 UART_rxBufferHead;
  27:.\Generated_Source\PSoC4/UART_SPI_UART.c ****     volatile uint32 UART_rxBufferTail;
  28:.\Generated_Source\PSoC4/UART_SPI_UART.c ****     volatile uint8  UART_rxBufferOverflow;
  29:.\Generated_Source\PSoC4/UART_SPI_UART.c **** #endif /* (UART_INTERNAL_RX_SW_BUFFER_CONST) */
  30:.\Generated_Source\PSoC4/UART_SPI_UART.c **** 
  31:.\Generated_Source\PSoC4/UART_SPI_UART.c **** #if(UART_INTERNAL_TX_SW_BUFFER_CONST)
  32:.\Generated_Source\PSoC4/UART_SPI_UART.c ****     volatile uint32 UART_txBufferHead;
  33:.\Generated_Source\PSoC4/UART_SPI_UART.c ****     volatile uint32 UART_txBufferTail;
  34:.\Generated_Source\PSoC4/UART_SPI_UART.c **** #endif /* (UART_INTERNAL_TX_SW_BUFFER_CONST) */
  35:.\Generated_Source\PSoC4/UART_SPI_UART.c **** 
  36:.\Generated_Source\PSoC4/UART_SPI_UART.c **** #if(UART_INTERNAL_RX_SW_BUFFER)
  37:.\Generated_Source\PSoC4/UART_SPI_UART.c ****     /* Add one element to the buffer to receive full packet. One byte in receive buffer is always e
  38:.\Generated_Source\PSoC4/UART_SPI_UART.c ****     volatile uint8 UART_rxBufferInternal[UART_INTERNAL_RX_BUFFER_SIZE];
  39:.\Generated_Source\PSoC4/UART_SPI_UART.c **** #endif /* (UART_INTERNAL_RX_SW_BUFFER) */
  40:.\Generated_Source\PSoC4/UART_SPI_UART.c **** 
  41:.\Generated_Source\PSoC4/UART_SPI_UART.c **** #if(UART_INTERNAL_TX_SW_BUFFER)
  42:.\Generated_Source\PSoC4/UART_SPI_UART.c ****     volatile uint8 UART_txBufferInternal[UART_TX_BUFFER_SIZE];
  43:.\Generated_Source\PSoC4/UART_SPI_UART.c **** #endif /* (UART_INTERNAL_TX_SW_BUFFER) */
  44:.\Generated_Source\PSoC4/UART_SPI_UART.c **** 
  45:.\Generated_Source\PSoC4/UART_SPI_UART.c **** 
  46:.\Generated_Source\PSoC4/UART_SPI_UART.c **** #if(UART_RX_DIRECTION)
  47:.\Generated_Source\PSoC4/UART_SPI_UART.c ****     /*******************************************************************************
  48:.\Generated_Source\PSoC4/UART_SPI_UART.c ****     * Function Name: UART_SpiUartReadRxData
  49:.\Generated_Source\PSoC4/UART_SPI_UART.c ****     ********************************************************************************
  50:.\Generated_Source\PSoC4/UART_SPI_UART.c ****     *
  51:.\Generated_Source\PSoC4/UART_SPI_UART.c ****     * Summary:
  52:.\Generated_Source\PSoC4/UART_SPI_UART.c ****     *  Retrieves the next data element from the receive buffer.
  53:.\Generated_Source\PSoC4/UART_SPI_UART.c ****     *   - RX software buffer is disabled: Returns data element retrieved from
  54:.\Generated_Source\PSoC4/UART_SPI_UART.c ****     *     RX FIFO. Undefined data will be returned if the RX FIFO is empty.
  55:.\Generated_Source\PSoC4/UART_SPI_UART.c ****     *   - RX software buffer is enabled: Returns data element from the software
  56:.\Generated_Source\PSoC4/UART_SPI_UART.c ****     *     receive buffer. Zero value is returned if the software receive buffer
  57:.\Generated_Source\PSoC4/UART_SPI_UART.c ****     *     is empty.
  58:.\Generated_Source\PSoC4/UART_SPI_UART.c ****     *
  59:.\Generated_Source\PSoC4/UART_SPI_UART.c ****     * Parameters:
  60:.\Generated_Source\PSoC4/UART_SPI_UART.c ****     *  None
  61:.\Generated_Source\PSoC4/UART_SPI_UART.c ****     *
  62:.\Generated_Source\PSoC4/UART_SPI_UART.c ****     * Return:
  63:.\Generated_Source\PSoC4/UART_SPI_UART.c ****     *  Next data element from the receive buffer.
  64:.\Generated_Source\PSoC4/UART_SPI_UART.c ****     *
  65:.\Generated_Source\PSoC4/UART_SPI_UART.c ****     * Global Variables:
  66:.\Generated_Source\PSoC4/UART_SPI_UART.c ****     *  Look into UART_SpiInit for description.
  67:.\Generated_Source\PSoC4/UART_SPI_UART.c ****     *
  68:.\Generated_Source\PSoC4/UART_SPI_UART.c ****     *******************************************************************************/
  69:.\Generated_Source\PSoC4/UART_SPI_UART.c ****     uint32 UART_SpiUartReadRxData(void)
  70:.\Generated_Source\PSoC4/UART_SPI_UART.c ****     {
  33              		.loc 1 70 0
  34              		.cfi_startproc
  35 0000 80B5     		push	{r7, lr}
  36              		.cfi_def_cfa_offset 8
  37              		.cfi_offset 7, -8
  38              		.cfi_offset 14, -4
  39 0002 82B0     		sub	sp, sp, #8
  40              		.cfi_def_cfa_offset 16
  41 0004 00AF     		add	r7, sp, #0
  42              		.cfi_def_cfa_register 7
  71:.\Generated_Source\PSoC4/UART_SPI_UART.c ****         uint32 rxData = 0u;
  43              		.loc 1 71 0
ARM GAS  C:\Users\wmd\AppData\Local\Temp\cc1TEzvH.s 			page 3


  44 0006 0023     		mov	r3, #0
  45 0008 7B60     		str	r3, [r7, #4]
  72:.\Generated_Source\PSoC4/UART_SPI_UART.c **** 
  73:.\Generated_Source\PSoC4/UART_SPI_UART.c ****     #if (UART_INTERNAL_RX_SW_BUFFER_CONST)
  74:.\Generated_Source\PSoC4/UART_SPI_UART.c ****         uint32 locTail;
  75:.\Generated_Source\PSoC4/UART_SPI_UART.c ****     #endif /* (UART_INTERNAL_RX_SW_BUFFER_CONST) */
  76:.\Generated_Source\PSoC4/UART_SPI_UART.c **** 
  77:.\Generated_Source\PSoC4/UART_SPI_UART.c ****         #if (UART_CHECK_RX_SW_BUFFER)
  78:.\Generated_Source\PSoC4/UART_SPI_UART.c ****         {
  79:.\Generated_Source\PSoC4/UART_SPI_UART.c ****             if (UART_rxBufferHead != UART_rxBufferTail)
  46              		.loc 1 79 0
  47 000a 0F4B     		ldr	r3, .L5
  48 000c 1A68     		ldr	r2, [r3]
  49 000e 0F4B     		ldr	r3, .L5+4
  50 0010 1B68     		ldr	r3, [r3]
  51 0012 9A42     		cmp	r2, r3
  52 0014 12D0     		beq	.L2
  80:.\Generated_Source\PSoC4/UART_SPI_UART.c ****             {
  81:.\Generated_Source\PSoC4/UART_SPI_UART.c ****                 /* There is data in RX software buffer */
  82:.\Generated_Source\PSoC4/UART_SPI_UART.c **** 
  83:.\Generated_Source\PSoC4/UART_SPI_UART.c ****                 /* Calculate index to read from */
  84:.\Generated_Source\PSoC4/UART_SPI_UART.c ****                 locTail = (UART_rxBufferTail + 1u);
  53              		.loc 1 84 0
  54 0016 0D4B     		ldr	r3, .L5+4
  55 0018 1B68     		ldr	r3, [r3]
  56 001a 0133     		add	r3, r3, #1
  57 001c 3B60     		str	r3, [r7]
  85:.\Generated_Source\PSoC4/UART_SPI_UART.c **** 
  86:.\Generated_Source\PSoC4/UART_SPI_UART.c ****                 if (UART_INTERNAL_RX_BUFFER_SIZE == locTail)
  58              		.loc 1 86 0
  59 001e 3A68     		ldr	r2, [r7]
  60 0020 0B4B     		ldr	r3, .L5+8
  61 0022 9A42     		cmp	r2, r3
  62 0024 01D1     		bne	.L3
  87:.\Generated_Source\PSoC4/UART_SPI_UART.c ****                 {
  88:.\Generated_Source\PSoC4/UART_SPI_UART.c ****                     locTail = 0u;
  63              		.loc 1 88 0
  64 0026 0023     		mov	r3, #0
  65 0028 3B60     		str	r3, [r7]
  66              	.L3:
  89:.\Generated_Source\PSoC4/UART_SPI_UART.c ****                 }
  90:.\Generated_Source\PSoC4/UART_SPI_UART.c **** 
  91:.\Generated_Source\PSoC4/UART_SPI_UART.c ****                 /* Get data from RX software buffer */
  92:.\Generated_Source\PSoC4/UART_SPI_UART.c ****                 rxData = UART_GetWordFromRxBuffer(locTail);
  67              		.loc 1 92 0
  68 002a 0A4A     		ldr	r2, .L5+12
  69 002c 3B68     		ldr	r3, [r7]
  70 002e D318     		add	r3, r2, r3
  71 0030 1B78     		ldrb	r3, [r3]
  72 0032 DBB2     		uxtb	r3, r3
  73 0034 7B60     		str	r3, [r7, #4]
  93:.\Generated_Source\PSoC4/UART_SPI_UART.c **** 
  94:.\Generated_Source\PSoC4/UART_SPI_UART.c ****                 /* Change index in the buffer */
  95:.\Generated_Source\PSoC4/UART_SPI_UART.c ****                 UART_rxBufferTail = locTail;
  74              		.loc 1 95 0
  75 0036 054B     		ldr	r3, .L5+4
  76 0038 3A68     		ldr	r2, [r7]
ARM GAS  C:\Users\wmd\AppData\Local\Temp\cc1TEzvH.s 			page 4


  77 003a 1A60     		str	r2, [r3]
  78              	.L2:
  96:.\Generated_Source\PSoC4/UART_SPI_UART.c **** 
  97:.\Generated_Source\PSoC4/UART_SPI_UART.c ****                 #if (UART_CHECK_UART_RTS_CONTROL_FLOW)
  98:.\Generated_Source\PSoC4/UART_SPI_UART.c ****                 {
  99:.\Generated_Source\PSoC4/UART_SPI_UART.c ****                     /* Check if RX Not Empty is disabled in the interrupt */
 100:.\Generated_Source\PSoC4/UART_SPI_UART.c ****                     if (0u == (UART_INTR_RX_MASK_REG & UART_INTR_RX_NOT_EMPTY))
 101:.\Generated_Source\PSoC4/UART_SPI_UART.c ****                     {
 102:.\Generated_Source\PSoC4/UART_SPI_UART.c ****                         /* Enable RX Not Empty interrupt source to continue
 103:.\Generated_Source\PSoC4/UART_SPI_UART.c ****                         * receiving data into software buffer.
 104:.\Generated_Source\PSoC4/UART_SPI_UART.c ****                         */
 105:.\Generated_Source\PSoC4/UART_SPI_UART.c ****                         UART_INTR_RX_MASK_REG |= UART_INTR_RX_NOT_EMPTY;
 106:.\Generated_Source\PSoC4/UART_SPI_UART.c ****                     }
 107:.\Generated_Source\PSoC4/UART_SPI_UART.c ****                 }
 108:.\Generated_Source\PSoC4/UART_SPI_UART.c ****                 #endif
 109:.\Generated_Source\PSoC4/UART_SPI_UART.c **** 
 110:.\Generated_Source\PSoC4/UART_SPI_UART.c ****             }
 111:.\Generated_Source\PSoC4/UART_SPI_UART.c ****         }
 112:.\Generated_Source\PSoC4/UART_SPI_UART.c ****         #else
 113:.\Generated_Source\PSoC4/UART_SPI_UART.c ****         {
 114:.\Generated_Source\PSoC4/UART_SPI_UART.c ****             /* Read data from RX FIFO */
 115:.\Generated_Source\PSoC4/UART_SPI_UART.c ****             rxData = UART_RX_FIFO_RD_REG;
 116:.\Generated_Source\PSoC4/UART_SPI_UART.c ****         }
 117:.\Generated_Source\PSoC4/UART_SPI_UART.c ****         #endif
 118:.\Generated_Source\PSoC4/UART_SPI_UART.c **** 
 119:.\Generated_Source\PSoC4/UART_SPI_UART.c ****         return (rxData);
  79              		.loc 1 119 0
  80 003c 7B68     		ldr	r3, [r7, #4]
 120:.\Generated_Source\PSoC4/UART_SPI_UART.c ****     }
  81              		.loc 1 120 0
  82 003e 181C     		mov	r0, r3
  83 0040 BD46     		mov	sp, r7
  84 0042 02B0     		add	sp, sp, #8
  85              		@ sp needed
  86 0044 80BD     		pop	{r7, pc}
  87              	.L6:
  88 0046 C046     		.align	2
  89              	.L5:
  90 0048 00000000 		.word	UART_rxBufferHead
  91 004c 00000000 		.word	UART_rxBufferTail
  92 0050 01080000 		.word	2049
  93 0054 00000000 		.word	UART_rxBufferInternal
  94              		.cfi_endproc
  95              	.LFE2:
  96              		.size	UART_SpiUartReadRxData, .-UART_SpiUartReadRxData
  97              		.section	.text.UART_SpiUartGetRxBufferSize,"ax",%progbits
  98              		.align	2
  99              		.global	UART_SpiUartGetRxBufferSize
 100              		.code	16
 101              		.thumb_func
 102              		.type	UART_SpiUartGetRxBufferSize, %function
 103              	UART_SpiUartGetRxBufferSize:
 104              	.LFB3:
 121:.\Generated_Source\PSoC4/UART_SPI_UART.c **** 
 122:.\Generated_Source\PSoC4/UART_SPI_UART.c **** 
 123:.\Generated_Source\PSoC4/UART_SPI_UART.c ****     /*******************************************************************************
 124:.\Generated_Source\PSoC4/UART_SPI_UART.c ****     * Function Name: UART_SpiUartGetRxBufferSize
ARM GAS  C:\Users\wmd\AppData\Local\Temp\cc1TEzvH.s 			page 5


 125:.\Generated_Source\PSoC4/UART_SPI_UART.c ****     ********************************************************************************
 126:.\Generated_Source\PSoC4/UART_SPI_UART.c ****     *
 127:.\Generated_Source\PSoC4/UART_SPI_UART.c ****     * Summary:
 128:.\Generated_Source\PSoC4/UART_SPI_UART.c ****     *  Returns the number of received data elements in the receive buffer.
 129:.\Generated_Source\PSoC4/UART_SPI_UART.c ****     *   - RX software buffer disabled: returns the number of used entries in
 130:.\Generated_Source\PSoC4/UART_SPI_UART.c ****     *     RX FIFO.
 131:.\Generated_Source\PSoC4/UART_SPI_UART.c ****     *   - RX software buffer enabled: returns the number of elements which were
 132:.\Generated_Source\PSoC4/UART_SPI_UART.c ****     *     placed in the receive buffer. This does not include the hardware RX FIFO.
 133:.\Generated_Source\PSoC4/UART_SPI_UART.c ****     *
 134:.\Generated_Source\PSoC4/UART_SPI_UART.c ****     * Parameters:
 135:.\Generated_Source\PSoC4/UART_SPI_UART.c ****     *  None
 136:.\Generated_Source\PSoC4/UART_SPI_UART.c ****     *
 137:.\Generated_Source\PSoC4/UART_SPI_UART.c ****     * Return:
 138:.\Generated_Source\PSoC4/UART_SPI_UART.c ****     *  Number of received data elements
 139:.\Generated_Source\PSoC4/UART_SPI_UART.c ****     *
 140:.\Generated_Source\PSoC4/UART_SPI_UART.c ****     *******************************************************************************/
 141:.\Generated_Source\PSoC4/UART_SPI_UART.c ****     uint32 UART_SpiUartGetRxBufferSize(void)
 142:.\Generated_Source\PSoC4/UART_SPI_UART.c ****     {
 105              		.loc 1 142 0
 106              		.cfi_startproc
 107 0000 80B5     		push	{r7, lr}
 108              		.cfi_def_cfa_offset 8
 109              		.cfi_offset 7, -8
 110              		.cfi_offset 14, -4
 111 0002 82B0     		sub	sp, sp, #8
 112              		.cfi_def_cfa_offset 16
 113 0004 00AF     		add	r7, sp, #0
 114              		.cfi_def_cfa_register 7
 143:.\Generated_Source\PSoC4/UART_SPI_UART.c ****         uint32 size;
 144:.\Generated_Source\PSoC4/UART_SPI_UART.c ****     #if (UART_INTERNAL_RX_SW_BUFFER_CONST)
 145:.\Generated_Source\PSoC4/UART_SPI_UART.c ****         uint32 locHead;
 146:.\Generated_Source\PSoC4/UART_SPI_UART.c ****     #endif /* (UART_INTERNAL_RX_SW_BUFFER_CONST) */
 147:.\Generated_Source\PSoC4/UART_SPI_UART.c **** 
 148:.\Generated_Source\PSoC4/UART_SPI_UART.c ****         #if (UART_CHECK_RX_SW_BUFFER)
 149:.\Generated_Source\PSoC4/UART_SPI_UART.c ****         {
 150:.\Generated_Source\PSoC4/UART_SPI_UART.c ****             locHead = UART_rxBufferHead;
 115              		.loc 1 150 0
 116 0006 0D4B     		ldr	r3, .L11
 117 0008 1B68     		ldr	r3, [r3]
 118 000a 3B60     		str	r3, [r7]
 151:.\Generated_Source\PSoC4/UART_SPI_UART.c **** 
 152:.\Generated_Source\PSoC4/UART_SPI_UART.c ****             if(locHead >= UART_rxBufferTail)
 119              		.loc 1 152 0
 120 000c 0C4B     		ldr	r3, .L11+4
 121 000e 1B68     		ldr	r3, [r3]
 122 0010 3A68     		ldr	r2, [r7]
 123 0012 9A42     		cmp	r2, r3
 124 0014 05D3     		bcc	.L8
 153:.\Generated_Source\PSoC4/UART_SPI_UART.c ****             {
 154:.\Generated_Source\PSoC4/UART_SPI_UART.c ****                 size = (locHead - UART_rxBufferTail);
 125              		.loc 1 154 0
 126 0016 0A4B     		ldr	r3, .L11+4
 127 0018 1B68     		ldr	r3, [r3]
 128 001a 3A68     		ldr	r2, [r7]
 129 001c D31A     		sub	r3, r2, r3
 130 001e 7B60     		str	r3, [r7, #4]
 131 0020 06E0     		b	.L9
ARM GAS  C:\Users\wmd\AppData\Local\Temp\cc1TEzvH.s 			page 6


 132              	.L8:
 155:.\Generated_Source\PSoC4/UART_SPI_UART.c ****             }
 156:.\Generated_Source\PSoC4/UART_SPI_UART.c ****             else
 157:.\Generated_Source\PSoC4/UART_SPI_UART.c ****             {
 158:.\Generated_Source\PSoC4/UART_SPI_UART.c ****                 size = (locHead + (UART_INTERNAL_RX_BUFFER_SIZE - UART_rxBufferTail));
 133              		.loc 1 158 0
 134 0022 074B     		ldr	r3, .L11+4
 135 0024 1B68     		ldr	r3, [r3]
 136 0026 3A68     		ldr	r2, [r7]
 137 0028 D31A     		sub	r3, r2, r3
 138 002a 064A     		ldr	r2, .L11+8
 139 002c 9B18     		add	r3, r3, r2
 140 002e 7B60     		str	r3, [r7, #4]
 141              	.L9:
 159:.\Generated_Source\PSoC4/UART_SPI_UART.c ****             }
 160:.\Generated_Source\PSoC4/UART_SPI_UART.c ****         }
 161:.\Generated_Source\PSoC4/UART_SPI_UART.c ****         #else
 162:.\Generated_Source\PSoC4/UART_SPI_UART.c ****         {
 163:.\Generated_Source\PSoC4/UART_SPI_UART.c ****             size = UART_GET_RX_FIFO_ENTRIES;
 164:.\Generated_Source\PSoC4/UART_SPI_UART.c ****         }
 165:.\Generated_Source\PSoC4/UART_SPI_UART.c ****         #endif
 166:.\Generated_Source\PSoC4/UART_SPI_UART.c **** 
 167:.\Generated_Source\PSoC4/UART_SPI_UART.c ****         return (size);
 142              		.loc 1 167 0
 143 0030 7B68     		ldr	r3, [r7, #4]
 168:.\Generated_Source\PSoC4/UART_SPI_UART.c ****     }
 144              		.loc 1 168 0
 145 0032 181C     		mov	r0, r3
 146 0034 BD46     		mov	sp, r7
 147 0036 02B0     		add	sp, sp, #8
 148              		@ sp needed
 149 0038 80BD     		pop	{r7, pc}
 150              	.L12:
 151 003a C046     		.align	2
 152              	.L11:
 153 003c 00000000 		.word	UART_rxBufferHead
 154 0040 00000000 		.word	UART_rxBufferTail
 155 0044 01080000 		.word	2049
 156              		.cfi_endproc
 157              	.LFE3:
 158              		.size	UART_SpiUartGetRxBufferSize, .-UART_SpiUartGetRxBufferSize
 159              		.section	.text.UART_SpiUartClearRxBuffer,"ax",%progbits
 160              		.align	2
 161              		.global	UART_SpiUartClearRxBuffer
 162              		.code	16
 163              		.thumb_func
 164              		.type	UART_SpiUartClearRxBuffer, %function
 165              	UART_SpiUartClearRxBuffer:
 166              	.LFB4:
 169:.\Generated_Source\PSoC4/UART_SPI_UART.c **** 
 170:.\Generated_Source\PSoC4/UART_SPI_UART.c **** 
 171:.\Generated_Source\PSoC4/UART_SPI_UART.c ****     /*******************************************************************************
 172:.\Generated_Source\PSoC4/UART_SPI_UART.c ****     * Function Name: UART_SpiUartClearRxBuffer
 173:.\Generated_Source\PSoC4/UART_SPI_UART.c ****     ********************************************************************************
 174:.\Generated_Source\PSoC4/UART_SPI_UART.c ****     *
 175:.\Generated_Source\PSoC4/UART_SPI_UART.c ****     * Summary:
 176:.\Generated_Source\PSoC4/UART_SPI_UART.c ****     *  Clears the receive buffer and RX FIFO.
ARM GAS  C:\Users\wmd\AppData\Local\Temp\cc1TEzvH.s 			page 7


 177:.\Generated_Source\PSoC4/UART_SPI_UART.c ****     *
 178:.\Generated_Source\PSoC4/UART_SPI_UART.c ****     * Parameters:
 179:.\Generated_Source\PSoC4/UART_SPI_UART.c ****     *  None
 180:.\Generated_Source\PSoC4/UART_SPI_UART.c ****     *
 181:.\Generated_Source\PSoC4/UART_SPI_UART.c ****     * Return:
 182:.\Generated_Source\PSoC4/UART_SPI_UART.c ****     *  None
 183:.\Generated_Source\PSoC4/UART_SPI_UART.c ****     *
 184:.\Generated_Source\PSoC4/UART_SPI_UART.c ****     *******************************************************************************/
 185:.\Generated_Source\PSoC4/UART_SPI_UART.c ****     void UART_SpiUartClearRxBuffer(void)
 186:.\Generated_Source\PSoC4/UART_SPI_UART.c ****     {
 167              		.loc 1 186 0
 168              		.cfi_startproc
 169 0000 80B5     		push	{r7, lr}
 170              		.cfi_def_cfa_offset 8
 171              		.cfi_offset 7, -8
 172              		.cfi_offset 14, -4
 173 0002 00AF     		add	r7, sp, #0
 174              		.cfi_def_cfa_register 7
 187:.\Generated_Source\PSoC4/UART_SPI_UART.c ****         #if (UART_CHECK_RX_SW_BUFFER)
 188:.\Generated_Source\PSoC4/UART_SPI_UART.c ****         {
 189:.\Generated_Source\PSoC4/UART_SPI_UART.c ****             /* Lock from component interruption */
 190:.\Generated_Source\PSoC4/UART_SPI_UART.c ****             UART_DisableInt();
 175              		.loc 1 190 0
 176 0004 0A20     		mov	r0, #10
 177 0006 FFF7FEFF 		bl	CyIntDisable
 191:.\Generated_Source\PSoC4/UART_SPI_UART.c **** 
 192:.\Generated_Source\PSoC4/UART_SPI_UART.c ****             /* Flush RX software buffer */
 193:.\Generated_Source\PSoC4/UART_SPI_UART.c ****             UART_rxBufferHead = UART_rxBufferTail;
 178              		.loc 1 193 0
 179 000a 0E4B     		ldr	r3, .L14
 180 000c 1A68     		ldr	r2, [r3]
 181 000e 0E4B     		ldr	r3, .L14+4
 182 0010 1A60     		str	r2, [r3]
 194:.\Generated_Source\PSoC4/UART_SPI_UART.c ****             UART_rxBufferOverflow = 0u;
 183              		.loc 1 194 0
 184 0012 0E4B     		ldr	r3, .L14+8
 185 0014 0022     		mov	r2, #0
 186 0016 1A70     		strb	r2, [r3]
 195:.\Generated_Source\PSoC4/UART_SPI_UART.c **** 
 196:.\Generated_Source\PSoC4/UART_SPI_UART.c ****             UART_CLEAR_RX_FIFO;
 187              		.loc 1 196 0
 188 0018 0D4B     		ldr	r3, .L14+12
 189 001a 0D4A     		ldr	r2, .L14+12
 190 001c 1268     		ldr	r2, [r2]
 191 001e 8021     		mov	r1, #128
 192 0020 4902     		lsl	r1, r1, #9
 193 0022 0A43     		orr	r2, r1
 194 0024 1A60     		str	r2, [r3]
 195 0026 0A4B     		ldr	r3, .L14+12
 196 0028 094A     		ldr	r2, .L14+12
 197 002a 1168     		ldr	r1, [r2]
 198 002c 094A     		ldr	r2, .L14+16
 199 002e 0A40     		and	r2, r1
 200 0030 1A60     		str	r2, [r3]
 197:.\Generated_Source\PSoC4/UART_SPI_UART.c ****             UART_ClearRxInterruptSource(UART_INTR_RX_ALL);
 201              		.loc 1 197 0
 202 0032 094B     		ldr	r3, .L14+20
ARM GAS  C:\Users\wmd\AppData\Local\Temp\cc1TEzvH.s 			page 8


 203 0034 094A     		ldr	r2, .L14+24
 204 0036 1A60     		str	r2, [r3]
 198:.\Generated_Source\PSoC4/UART_SPI_UART.c **** 
 199:.\Generated_Source\PSoC4/UART_SPI_UART.c ****             #if (UART_CHECK_UART_RTS_CONTROL_FLOW)
 200:.\Generated_Source\PSoC4/UART_SPI_UART.c ****             {
 201:.\Generated_Source\PSoC4/UART_SPI_UART.c ****                 /* Enable RX Not Empty interrupt source to continue receiving
 202:.\Generated_Source\PSoC4/UART_SPI_UART.c ****                 * data into software buffer.
 203:.\Generated_Source\PSoC4/UART_SPI_UART.c ****                 */
 204:.\Generated_Source\PSoC4/UART_SPI_UART.c ****                 UART_INTR_RX_MASK_REG |= UART_INTR_RX_NOT_EMPTY;
 205:.\Generated_Source\PSoC4/UART_SPI_UART.c ****             }
 206:.\Generated_Source\PSoC4/UART_SPI_UART.c ****             #endif
 207:.\Generated_Source\PSoC4/UART_SPI_UART.c **** 
 208:.\Generated_Source\PSoC4/UART_SPI_UART.c ****             /* Release lock */
 209:.\Generated_Source\PSoC4/UART_SPI_UART.c ****             UART_EnableInt();
 205              		.loc 1 209 0
 206 0038 0A20     		mov	r0, #10
 207 003a FFF7FEFF 		bl	CyIntEnable
 210:.\Generated_Source\PSoC4/UART_SPI_UART.c ****         }
 211:.\Generated_Source\PSoC4/UART_SPI_UART.c ****         #else
 212:.\Generated_Source\PSoC4/UART_SPI_UART.c ****         {
 213:.\Generated_Source\PSoC4/UART_SPI_UART.c ****             UART_CLEAR_RX_FIFO;
 214:.\Generated_Source\PSoC4/UART_SPI_UART.c ****         }
 215:.\Generated_Source\PSoC4/UART_SPI_UART.c ****         #endif
 216:.\Generated_Source\PSoC4/UART_SPI_UART.c ****     }
 208              		.loc 1 216 0
 209 003e BD46     		mov	sp, r7
 210              		@ sp needed
 211 0040 80BD     		pop	{r7, pc}
 212              	.L15:
 213 0042 C046     		.align	2
 214              	.L14:
 215 0044 00000000 		.word	UART_rxBufferTail
 216 0048 00000000 		.word	UART_rxBufferHead
 217 004c 00000000 		.word	UART_rxBufferOverflow
 218 0050 04032540 		.word	1076167428
 219 0054 FFFFFEFF 		.word	-65537
 220 0058 C00F2540 		.word	1076170688
 221 005c ED0F0000 		.word	4077
 222              		.cfi_endproc
 223              	.LFE4:
 224              		.size	UART_SpiUartClearRxBuffer, .-UART_SpiUartClearRxBuffer
 225              		.section	.text.UART_SpiUartWriteTxData,"ax",%progbits
 226              		.align	2
 227              		.global	UART_SpiUartWriteTxData
 228              		.code	16
 229              		.thumb_func
 230              		.type	UART_SpiUartWriteTxData, %function
 231              	UART_SpiUartWriteTxData:
 232              	.LFB5:
 217:.\Generated_Source\PSoC4/UART_SPI_UART.c **** 
 218:.\Generated_Source\PSoC4/UART_SPI_UART.c **** #endif /* (UART_RX_DIRECTION) */
 219:.\Generated_Source\PSoC4/UART_SPI_UART.c **** 
 220:.\Generated_Source\PSoC4/UART_SPI_UART.c **** 
 221:.\Generated_Source\PSoC4/UART_SPI_UART.c **** #if(UART_TX_DIRECTION)
 222:.\Generated_Source\PSoC4/UART_SPI_UART.c ****     /*******************************************************************************
 223:.\Generated_Source\PSoC4/UART_SPI_UART.c ****     * Function Name: UART_SpiUartWriteTxData
 224:.\Generated_Source\PSoC4/UART_SPI_UART.c ****     ********************************************************************************
ARM GAS  C:\Users\wmd\AppData\Local\Temp\cc1TEzvH.s 			page 9


 225:.\Generated_Source\PSoC4/UART_SPI_UART.c ****     *
 226:.\Generated_Source\PSoC4/UART_SPI_UART.c ****     * Summary:
 227:.\Generated_Source\PSoC4/UART_SPI_UART.c ****     *  Places a data entry into the transmit buffer to be sent at the next available
 228:.\Generated_Source\PSoC4/UART_SPI_UART.c ****     *  bus time.
 229:.\Generated_Source\PSoC4/UART_SPI_UART.c ****     *  This function is blocking and waits until there is space available to put the
 230:.\Generated_Source\PSoC4/UART_SPI_UART.c ****     *  requested data in the transmit buffer.
 231:.\Generated_Source\PSoC4/UART_SPI_UART.c ****     *
 232:.\Generated_Source\PSoC4/UART_SPI_UART.c ****     * Parameters:
 233:.\Generated_Source\PSoC4/UART_SPI_UART.c ****     *  txDataByte: the data to be transmitted.
 234:.\Generated_Source\PSoC4/UART_SPI_UART.c ****     *
 235:.\Generated_Source\PSoC4/UART_SPI_UART.c ****     * Return:
 236:.\Generated_Source\PSoC4/UART_SPI_UART.c ****     *  None
 237:.\Generated_Source\PSoC4/UART_SPI_UART.c ****     *
 238:.\Generated_Source\PSoC4/UART_SPI_UART.c ****     *******************************************************************************/
 239:.\Generated_Source\PSoC4/UART_SPI_UART.c ****     void UART_SpiUartWriteTxData(uint32 txData)
 240:.\Generated_Source\PSoC4/UART_SPI_UART.c ****     {
 233              		.loc 1 240 0
 234              		.cfi_startproc
 235 0000 80B5     		push	{r7, lr}
 236              		.cfi_def_cfa_offset 8
 237              		.cfi_offset 7, -8
 238              		.cfi_offset 14, -4
 239 0002 84B0     		sub	sp, sp, #16
 240              		.cfi_def_cfa_offset 24
 241 0004 00AF     		add	r7, sp, #0
 242              		.cfi_def_cfa_register 7
 243 0006 7860     		str	r0, [r7, #4]
 241:.\Generated_Source\PSoC4/UART_SPI_UART.c ****     #if (UART_INTERNAL_TX_SW_BUFFER_CONST)
 242:.\Generated_Source\PSoC4/UART_SPI_UART.c ****         uint32 locHead;
 243:.\Generated_Source\PSoC4/UART_SPI_UART.c ****     #endif /* (UART_INTERNAL_TX_SW_BUFFER_CONST) */
 244:.\Generated_Source\PSoC4/UART_SPI_UART.c **** 
 245:.\Generated_Source\PSoC4/UART_SPI_UART.c ****         #if (UART_CHECK_TX_SW_BUFFER)
 246:.\Generated_Source\PSoC4/UART_SPI_UART.c ****         {
 247:.\Generated_Source\PSoC4/UART_SPI_UART.c ****             /* Put data directly into the TX FIFO */
 248:.\Generated_Source\PSoC4/UART_SPI_UART.c ****             if ((UART_txBufferHead == UART_txBufferTail) &&
 244              		.loc 1 248 0
 245 0008 1D4B     		ldr	r3, .L22
 246 000a 1A68     		ldr	r2, [r3]
 247 000c 1D4B     		ldr	r3, .L22+4
 248 000e 1B68     		ldr	r3, [r3]
 249 0010 9A42     		cmp	r2, r3
 250 0012 09D1     		bne	.L17
 249:.\Generated_Source\PSoC4/UART_SPI_UART.c ****                 (UART_SPI_UART_FIFO_SIZE != UART_GET_TX_FIFO_ENTRIES))
 251              		.loc 1 249 0 discriminator 1
 252 0014 1C4B     		ldr	r3, .L22+8
 253 0016 1A68     		ldr	r2, [r3]
 254 0018 1F23     		mov	r3, #31
 255 001a 1340     		and	r3, r2
 248:.\Generated_Source\PSoC4/UART_SPI_UART.c ****             if ((UART_txBufferHead == UART_txBufferTail) &&
 256              		.loc 1 248 0 discriminator 1
 257 001c 082B     		cmp	r3, #8
 258 001e 03D0     		beq	.L17
 250:.\Generated_Source\PSoC4/UART_SPI_UART.c ****             {
 251:.\Generated_Source\PSoC4/UART_SPI_UART.c ****                 /* TX software buffer is empty: put data directly in TX FIFO */
 252:.\Generated_Source\PSoC4/UART_SPI_UART.c ****                 UART_TX_FIFO_WR_REG = txData;
 259              		.loc 1 252 0
 260 0020 1A4B     		ldr	r3, .L22+12
ARM GAS  C:\Users\wmd\AppData\Local\Temp\cc1TEzvH.s 			page 10


 261 0022 7A68     		ldr	r2, [r7, #4]
 262 0024 1A60     		str	r2, [r3]
 263 0026 28E0     		b	.L16
 264              	.L17:
 253:.\Generated_Source\PSoC4/UART_SPI_UART.c ****             }
 254:.\Generated_Source\PSoC4/UART_SPI_UART.c ****             /* Put data into TX software buffer */
 255:.\Generated_Source\PSoC4/UART_SPI_UART.c ****             else
 256:.\Generated_Source\PSoC4/UART_SPI_UART.c ****             {
 257:.\Generated_Source\PSoC4/UART_SPI_UART.c ****                 /* Head index to put data */
 258:.\Generated_Source\PSoC4/UART_SPI_UART.c ****                 locHead = (UART_txBufferHead + 1u);
 265              		.loc 1 258 0
 266 0028 154B     		ldr	r3, .L22
 267 002a 1B68     		ldr	r3, [r3]
 268 002c 0133     		add	r3, r3, #1
 269 002e FB60     		str	r3, [r7, #12]
 259:.\Generated_Source\PSoC4/UART_SPI_UART.c **** 
 260:.\Generated_Source\PSoC4/UART_SPI_UART.c ****                 /* Adjust TX software buffer index */
 261:.\Generated_Source\PSoC4/UART_SPI_UART.c ****                 if (UART_TX_BUFFER_SIZE == locHead)
 270              		.loc 1 261 0
 271 0030 FA68     		ldr	r2, [r7, #12]
 272 0032 8023     		mov	r3, #128
 273 0034 DB00     		lsl	r3, r3, #3
 274 0036 9A42     		cmp	r2, r3
 275 0038 02D1     		bne	.L19
 262:.\Generated_Source\PSoC4/UART_SPI_UART.c ****                 {
 263:.\Generated_Source\PSoC4/UART_SPI_UART.c ****                     locHead = 0u;
 276              		.loc 1 263 0
 277 003a 0023     		mov	r3, #0
 278 003c FB60     		str	r3, [r7, #12]
 264:.\Generated_Source\PSoC4/UART_SPI_UART.c ****                 }
 265:.\Generated_Source\PSoC4/UART_SPI_UART.c **** 
 266:.\Generated_Source\PSoC4/UART_SPI_UART.c ****                 /* Wait for space in TX software buffer */
 267:.\Generated_Source\PSoC4/UART_SPI_UART.c ****                 while (locHead == UART_txBufferTail)
 279              		.loc 1 267 0
 280 003e FFE7     		b	.L21
 281              	.L19:
 282              	.L21:
 283 0040 C046     		mov	r8, r8
 284              	.L20:
 285              		.loc 1 267 0 is_stmt 0 discriminator 1
 286 0042 104B     		ldr	r3, .L22+4
 287 0044 1B68     		ldr	r3, [r3]
 288 0046 FA68     		ldr	r2, [r7, #12]
 289 0048 9A42     		cmp	r2, r3
 290 004a FAD0     		beq	.L20
 268:.\Generated_Source\PSoC4/UART_SPI_UART.c ****                 {
 269:.\Generated_Source\PSoC4/UART_SPI_UART.c ****                 }
 270:.\Generated_Source\PSoC4/UART_SPI_UART.c **** 
 271:.\Generated_Source\PSoC4/UART_SPI_UART.c ****                 /* TX software buffer has at least one room */
 272:.\Generated_Source\PSoC4/UART_SPI_UART.c **** 
 273:.\Generated_Source\PSoC4/UART_SPI_UART.c ****                 /* Clear old status of INTR_TX_NOT_FULL. It sets at the end of transfer when TX FIF
 274:.\Generated_Source\PSoC4/UART_SPI_UART.c ****                 UART_ClearTxInterruptSource(UART_INTR_TX_NOT_FULL);
 291              		.loc 1 274 0 is_stmt 1
 292 004c 104B     		ldr	r3, .L22+16
 293 004e 0222     		mov	r2, #2
 294 0050 1A60     		str	r2, [r3]
 275:.\Generated_Source\PSoC4/UART_SPI_UART.c **** 
ARM GAS  C:\Users\wmd\AppData\Local\Temp\cc1TEzvH.s 			page 11


 276:.\Generated_Source\PSoC4/UART_SPI_UART.c ****                 UART_PutWordInTxBuffer(locHead, txData);
 295              		.loc 1 276 0
 296 0052 7B68     		ldr	r3, [r7, #4]
 297 0054 DAB2     		uxtb	r2, r3
 298 0056 0F49     		ldr	r1, .L22+20
 299 0058 FB68     		ldr	r3, [r7, #12]
 300 005a CB18     		add	r3, r1, r3
 301 005c 1A70     		strb	r2, [r3]
 277:.\Generated_Source\PSoC4/UART_SPI_UART.c **** 
 278:.\Generated_Source\PSoC4/UART_SPI_UART.c ****                 UART_txBufferHead = locHead;
 302              		.loc 1 278 0
 303 005e 084B     		ldr	r3, .L22
 304 0060 FA68     		ldr	r2, [r7, #12]
 305 0062 1A60     		str	r2, [r3]
 279:.\Generated_Source\PSoC4/UART_SPI_UART.c **** 
 280:.\Generated_Source\PSoC4/UART_SPI_UART.c ****                 /* Check if TX Not Full is disabled in interrupt */
 281:.\Generated_Source\PSoC4/UART_SPI_UART.c ****                 if (0u == (UART_INTR_TX_MASK_REG & UART_INTR_TX_NOT_FULL))
 306              		.loc 1 281 0
 307 0064 0C4B     		ldr	r3, .L22+24
 308 0066 1A68     		ldr	r2, [r3]
 309 0068 0223     		mov	r3, #2
 310 006a 1340     		and	r3, r2
 311 006c 05D1     		bne	.L16
 282:.\Generated_Source\PSoC4/UART_SPI_UART.c ****                 {
 283:.\Generated_Source\PSoC4/UART_SPI_UART.c ****                     /* Enable TX Not Full interrupt source to transmit from software buffer */
 284:.\Generated_Source\PSoC4/UART_SPI_UART.c ****                     UART_INTR_TX_MASK_REG |= (uint32) UART_INTR_TX_NOT_FULL;
 312              		.loc 1 284 0
 313 006e 0A4B     		ldr	r3, .L22+24
 314 0070 094A     		ldr	r2, .L22+24
 315 0072 1268     		ldr	r2, [r2]
 316 0074 0221     		mov	r1, #2
 317 0076 0A43     		orr	r2, r1
 318 0078 1A60     		str	r2, [r3]
 319              	.L16:
 285:.\Generated_Source\PSoC4/UART_SPI_UART.c ****                 }
 286:.\Generated_Source\PSoC4/UART_SPI_UART.c ****             }
 287:.\Generated_Source\PSoC4/UART_SPI_UART.c ****         }
 288:.\Generated_Source\PSoC4/UART_SPI_UART.c ****         #else
 289:.\Generated_Source\PSoC4/UART_SPI_UART.c ****         {
 290:.\Generated_Source\PSoC4/UART_SPI_UART.c ****             /* Wait until TX FIFO has space to put data element */
 291:.\Generated_Source\PSoC4/UART_SPI_UART.c ****             while (UART_SPI_UART_FIFO_SIZE == UART_GET_TX_FIFO_ENTRIES)
 292:.\Generated_Source\PSoC4/UART_SPI_UART.c ****             {
 293:.\Generated_Source\PSoC4/UART_SPI_UART.c ****             }
 294:.\Generated_Source\PSoC4/UART_SPI_UART.c **** 
 295:.\Generated_Source\PSoC4/UART_SPI_UART.c ****             UART_TX_FIFO_WR_REG = txData;
 296:.\Generated_Source\PSoC4/UART_SPI_UART.c ****         }
 297:.\Generated_Source\PSoC4/UART_SPI_UART.c ****         #endif
 298:.\Generated_Source\PSoC4/UART_SPI_UART.c ****     }
 320              		.loc 1 298 0
 321 007a BD46     		mov	sp, r7
 322 007c 04B0     		add	sp, sp, #16
 323              		@ sp needed
 324 007e 80BD     		pop	{r7, pc}
 325              	.L23:
 326              		.align	2
 327              	.L22:
 328 0080 00000000 		.word	UART_txBufferHead
ARM GAS  C:\Users\wmd\AppData\Local\Temp\cc1TEzvH.s 			page 12


 329 0084 00000000 		.word	UART_txBufferTail
 330 0088 08022540 		.word	1076167176
 331 008c 40022540 		.word	1076167232
 332 0090 800F2540 		.word	1076170624
 333 0094 00000000 		.word	UART_txBufferInternal
 334 0098 880F2540 		.word	1076170632
 335              		.cfi_endproc
 336              	.LFE5:
 337              		.size	UART_SpiUartWriteTxData, .-UART_SpiUartWriteTxData
 338              		.section	.text.UART_SpiUartPutArray,"ax",%progbits
 339              		.align	2
 340              		.global	UART_SpiUartPutArray
 341              		.code	16
 342              		.thumb_func
 343              		.type	UART_SpiUartPutArray, %function
 344              	UART_SpiUartPutArray:
 345              	.LFB6:
 299:.\Generated_Source\PSoC4/UART_SPI_UART.c **** 
 300:.\Generated_Source\PSoC4/UART_SPI_UART.c **** 
 301:.\Generated_Source\PSoC4/UART_SPI_UART.c ****     /*******************************************************************************
 302:.\Generated_Source\PSoC4/UART_SPI_UART.c ****     * Function Name: UART_SpiUartPutArray
 303:.\Generated_Source\PSoC4/UART_SPI_UART.c ****     ********************************************************************************
 304:.\Generated_Source\PSoC4/UART_SPI_UART.c ****     *
 305:.\Generated_Source\PSoC4/UART_SPI_UART.c ****     * Summary:
 306:.\Generated_Source\PSoC4/UART_SPI_UART.c ****     *  Places an array of data into the transmit buffer to be sent.
 307:.\Generated_Source\PSoC4/UART_SPI_UART.c ****     *  This function is blocking and waits until there is a space available to put
 308:.\Generated_Source\PSoC4/UART_SPI_UART.c ****     *  all the requested data in the transmit buffer. The array size can be greater
 309:.\Generated_Source\PSoC4/UART_SPI_UART.c ****     *  than transmit buffer size.
 310:.\Generated_Source\PSoC4/UART_SPI_UART.c ****     *
 311:.\Generated_Source\PSoC4/UART_SPI_UART.c ****     * Parameters:
 312:.\Generated_Source\PSoC4/UART_SPI_UART.c ****     *  wrBuf:  pointer to an array with data to be placed in transmit buffer.
 313:.\Generated_Source\PSoC4/UART_SPI_UART.c ****     *  count:  number of data elements to be placed in the transmit buffer.
 314:.\Generated_Source\PSoC4/UART_SPI_UART.c ****     *
 315:.\Generated_Source\PSoC4/UART_SPI_UART.c ****     * Return:
 316:.\Generated_Source\PSoC4/UART_SPI_UART.c ****     *  None
 317:.\Generated_Source\PSoC4/UART_SPI_UART.c ****     *
 318:.\Generated_Source\PSoC4/UART_SPI_UART.c ****     *******************************************************************************/
 319:.\Generated_Source\PSoC4/UART_SPI_UART.c ****     void UART_SpiUartPutArray(const uint8 wrBuf[], uint32 count)
 320:.\Generated_Source\PSoC4/UART_SPI_UART.c ****     {
 346              		.loc 1 320 0
 347              		.cfi_startproc
 348 0000 80B5     		push	{r7, lr}
 349              		.cfi_def_cfa_offset 8
 350              		.cfi_offset 7, -8
 351              		.cfi_offset 14, -4
 352 0002 84B0     		sub	sp, sp, #16
 353              		.cfi_def_cfa_offset 24
 354 0004 00AF     		add	r7, sp, #0
 355              		.cfi_def_cfa_register 7
 356 0006 7860     		str	r0, [r7, #4]
 357 0008 3960     		str	r1, [r7]
 321:.\Generated_Source\PSoC4/UART_SPI_UART.c ****         uint32 i;
 322:.\Generated_Source\PSoC4/UART_SPI_UART.c **** 
 323:.\Generated_Source\PSoC4/UART_SPI_UART.c ****         for (i=0u; i < count; i++)
 358              		.loc 1 323 0
 359 000a 0023     		mov	r3, #0
 360 000c FB60     		str	r3, [r7, #12]
ARM GAS  C:\Users\wmd\AppData\Local\Temp\cc1TEzvH.s 			page 13


 361 000e 09E0     		b	.L25
 362              	.L26:
 324:.\Generated_Source\PSoC4/UART_SPI_UART.c ****         {
 325:.\Generated_Source\PSoC4/UART_SPI_UART.c ****             UART_SpiUartWriteTxData((uint32) wrBuf[i]);
 363              		.loc 1 325 0 discriminator 2
 364 0010 7A68     		ldr	r2, [r7, #4]
 365 0012 FB68     		ldr	r3, [r7, #12]
 366 0014 D318     		add	r3, r2, r3
 367 0016 1B78     		ldrb	r3, [r3]
 368 0018 181C     		mov	r0, r3
 369 001a FFF7FEFF 		bl	UART_SpiUartWriteTxData
 323:.\Generated_Source\PSoC4/UART_SPI_UART.c ****         for (i=0u; i < count; i++)
 370              		.loc 1 323 0 discriminator 2
 371 001e FB68     		ldr	r3, [r7, #12]
 372 0020 0133     		add	r3, r3, #1
 373 0022 FB60     		str	r3, [r7, #12]
 374              	.L25:
 323:.\Generated_Source\PSoC4/UART_SPI_UART.c ****         for (i=0u; i < count; i++)
 375              		.loc 1 323 0 is_stmt 0 discriminator 1
 376 0024 FA68     		ldr	r2, [r7, #12]
 377 0026 3B68     		ldr	r3, [r7]
 378 0028 9A42     		cmp	r2, r3
 379 002a F1D3     		bcc	.L26
 326:.\Generated_Source\PSoC4/UART_SPI_UART.c ****         }
 327:.\Generated_Source\PSoC4/UART_SPI_UART.c ****     }
 380              		.loc 1 327 0 is_stmt 1
 381 002c BD46     		mov	sp, r7
 382 002e 04B0     		add	sp, sp, #16
 383              		@ sp needed
 384 0030 80BD     		pop	{r7, pc}
 385              		.cfi_endproc
 386              	.LFE6:
 387              		.size	UART_SpiUartPutArray, .-UART_SpiUartPutArray
 388 0032 C046     		.section	.text.UART_SpiUartGetTxBufferSize,"ax",%progbits
 389              		.align	2
 390              		.global	UART_SpiUartGetTxBufferSize
 391              		.code	16
 392              		.thumb_func
 393              		.type	UART_SpiUartGetTxBufferSize, %function
 394              	UART_SpiUartGetTxBufferSize:
 395              	.LFB7:
 328:.\Generated_Source\PSoC4/UART_SPI_UART.c **** 
 329:.\Generated_Source\PSoC4/UART_SPI_UART.c **** 
 330:.\Generated_Source\PSoC4/UART_SPI_UART.c ****     /*******************************************************************************
 331:.\Generated_Source\PSoC4/UART_SPI_UART.c ****     * Function Name: UART_SpiUartGetTxBufferSize
 332:.\Generated_Source\PSoC4/UART_SPI_UART.c ****     ********************************************************************************
 333:.\Generated_Source\PSoC4/UART_SPI_UART.c ****     *
 334:.\Generated_Source\PSoC4/UART_SPI_UART.c ****     * Summary:
 335:.\Generated_Source\PSoC4/UART_SPI_UART.c ****     * Returns the number of elements currently in the transmit buffer.
 336:.\Generated_Source\PSoC4/UART_SPI_UART.c ****     *  - TX software buffer is disabled: returns the number of used entries in
 337:.\Generated_Source\PSoC4/UART_SPI_UART.c ****     *    TX FIFO.
 338:.\Generated_Source\PSoC4/UART_SPI_UART.c ****     *  - TX software buffer is enabled: returns the number of elements currently
 339:.\Generated_Source\PSoC4/UART_SPI_UART.c ****     *    used in the transmit buffer. This number does not include used entries in
 340:.\Generated_Source\PSoC4/UART_SPI_UART.c ****     *    the TX FIFO. The transmit buffer size is zero until the TX FIFO is
 341:.\Generated_Source\PSoC4/UART_SPI_UART.c ****     *    not full.
 342:.\Generated_Source\PSoC4/UART_SPI_UART.c ****     *
 343:.\Generated_Source\PSoC4/UART_SPI_UART.c ****     * Parameters:
ARM GAS  C:\Users\wmd\AppData\Local\Temp\cc1TEzvH.s 			page 14


 344:.\Generated_Source\PSoC4/UART_SPI_UART.c ****     *  None
 345:.\Generated_Source\PSoC4/UART_SPI_UART.c ****     *
 346:.\Generated_Source\PSoC4/UART_SPI_UART.c ****     * Return:
 347:.\Generated_Source\PSoC4/UART_SPI_UART.c ****     *  Number of data elements ready to transmit.
 348:.\Generated_Source\PSoC4/UART_SPI_UART.c ****     *
 349:.\Generated_Source\PSoC4/UART_SPI_UART.c ****     *******************************************************************************/
 350:.\Generated_Source\PSoC4/UART_SPI_UART.c ****     uint32 UART_SpiUartGetTxBufferSize(void)
 351:.\Generated_Source\PSoC4/UART_SPI_UART.c ****     {
 396              		.loc 1 351 0
 397              		.cfi_startproc
 398 0000 80B5     		push	{r7, lr}
 399              		.cfi_def_cfa_offset 8
 400              		.cfi_offset 7, -8
 401              		.cfi_offset 14, -4
 402 0002 82B0     		sub	sp, sp, #8
 403              		.cfi_def_cfa_offset 16
 404 0004 00AF     		add	r7, sp, #0
 405              		.cfi_def_cfa_register 7
 352:.\Generated_Source\PSoC4/UART_SPI_UART.c ****         uint32 size;
 353:.\Generated_Source\PSoC4/UART_SPI_UART.c ****     #if (UART_INTERNAL_TX_SW_BUFFER_CONST)
 354:.\Generated_Source\PSoC4/UART_SPI_UART.c ****         uint32 locTail;
 355:.\Generated_Source\PSoC4/UART_SPI_UART.c ****     #endif /* (UART_INTERNAL_TX_SW_BUFFER_CONST) */
 356:.\Generated_Source\PSoC4/UART_SPI_UART.c **** 
 357:.\Generated_Source\PSoC4/UART_SPI_UART.c ****         #if (UART_CHECK_TX_SW_BUFFER)
 358:.\Generated_Source\PSoC4/UART_SPI_UART.c ****         {
 359:.\Generated_Source\PSoC4/UART_SPI_UART.c ****             /* Get current Tail index */
 360:.\Generated_Source\PSoC4/UART_SPI_UART.c ****             locTail = UART_txBufferTail;
 406              		.loc 1 360 0
 407 0006 0D4B     		ldr	r3, .L31
 408 0008 1B68     		ldr	r3, [r3]
 409 000a 3B60     		str	r3, [r7]
 361:.\Generated_Source\PSoC4/UART_SPI_UART.c **** 
 362:.\Generated_Source\PSoC4/UART_SPI_UART.c ****             if (UART_txBufferHead >= locTail)
 410              		.loc 1 362 0
 411 000c 0C4B     		ldr	r3, .L31+4
 412 000e 1A68     		ldr	r2, [r3]
 413 0010 3B68     		ldr	r3, [r7]
 414 0012 9A42     		cmp	r2, r3
 415 0014 05D3     		bcc	.L28
 363:.\Generated_Source\PSoC4/UART_SPI_UART.c ****             {
 364:.\Generated_Source\PSoC4/UART_SPI_UART.c ****                 size = (UART_txBufferHead - locTail);
 416              		.loc 1 364 0
 417 0016 0A4B     		ldr	r3, .L31+4
 418 0018 1A68     		ldr	r2, [r3]
 419 001a 3B68     		ldr	r3, [r7]
 420 001c D31A     		sub	r3, r2, r3
 421 001e 7B60     		str	r3, [r7, #4]
 422 0020 07E0     		b	.L29
 423              	.L28:
 365:.\Generated_Source\PSoC4/UART_SPI_UART.c ****             }
 366:.\Generated_Source\PSoC4/UART_SPI_UART.c ****             else
 367:.\Generated_Source\PSoC4/UART_SPI_UART.c ****             {
 368:.\Generated_Source\PSoC4/UART_SPI_UART.c ****                 size = (UART_txBufferHead + (UART_TX_BUFFER_SIZE - locTail));
 424              		.loc 1 368 0
 425 0022 074B     		ldr	r3, .L31+4
 426 0024 1A68     		ldr	r2, [r3]
 427 0026 3B68     		ldr	r3, [r7]
ARM GAS  C:\Users\wmd\AppData\Local\Temp\cc1TEzvH.s 			page 15


 428 0028 D31A     		sub	r3, r2, r3
 429 002a 8022     		mov	r2, #128
 430 002c D200     		lsl	r2, r2, #3
 431 002e 9B18     		add	r3, r3, r2
 432 0030 7B60     		str	r3, [r7, #4]
 433              	.L29:
 369:.\Generated_Source\PSoC4/UART_SPI_UART.c ****             }
 370:.\Generated_Source\PSoC4/UART_SPI_UART.c ****         }
 371:.\Generated_Source\PSoC4/UART_SPI_UART.c ****         #else
 372:.\Generated_Source\PSoC4/UART_SPI_UART.c ****         {
 373:.\Generated_Source\PSoC4/UART_SPI_UART.c ****             size = UART_GET_TX_FIFO_ENTRIES;
 374:.\Generated_Source\PSoC4/UART_SPI_UART.c ****         }
 375:.\Generated_Source\PSoC4/UART_SPI_UART.c ****         #endif
 376:.\Generated_Source\PSoC4/UART_SPI_UART.c **** 
 377:.\Generated_Source\PSoC4/UART_SPI_UART.c ****         return (size);
 434              		.loc 1 377 0
 435 0032 7B68     		ldr	r3, [r7, #4]
 378:.\Generated_Source\PSoC4/UART_SPI_UART.c ****     }
 436              		.loc 1 378 0
 437 0034 181C     		mov	r0, r3
 438 0036 BD46     		mov	sp, r7
 439 0038 02B0     		add	sp, sp, #8
 440              		@ sp needed
 441 003a 80BD     		pop	{r7, pc}
 442              	.L32:
 443              		.align	2
 444              	.L31:
 445 003c 00000000 		.word	UART_txBufferTail
 446 0040 00000000 		.word	UART_txBufferHead
 447              		.cfi_endproc
 448              	.LFE7:
 449              		.size	UART_SpiUartGetTxBufferSize, .-UART_SpiUartGetTxBufferSize
 450              		.section	.text.UART_SpiUartClearTxBuffer,"ax",%progbits
 451              		.align	2
 452              		.global	UART_SpiUartClearTxBuffer
 453              		.code	16
 454              		.thumb_func
 455              		.type	UART_SpiUartClearTxBuffer, %function
 456              	UART_SpiUartClearTxBuffer:
 457              	.LFB8:
 379:.\Generated_Source\PSoC4/UART_SPI_UART.c **** 
 380:.\Generated_Source\PSoC4/UART_SPI_UART.c **** 
 381:.\Generated_Source\PSoC4/UART_SPI_UART.c ****     /*******************************************************************************
 382:.\Generated_Source\PSoC4/UART_SPI_UART.c ****     * Function Name: UART_SpiUartClearTxBuffer
 383:.\Generated_Source\PSoC4/UART_SPI_UART.c ****     ********************************************************************************
 384:.\Generated_Source\PSoC4/UART_SPI_UART.c ****     *
 385:.\Generated_Source\PSoC4/UART_SPI_UART.c ****     * Summary:
 386:.\Generated_Source\PSoC4/UART_SPI_UART.c ****     *  Clears the transmit buffer and TX FIFO.
 387:.\Generated_Source\PSoC4/UART_SPI_UART.c ****     *
 388:.\Generated_Source\PSoC4/UART_SPI_UART.c ****     * Parameters:
 389:.\Generated_Source\PSoC4/UART_SPI_UART.c ****     *  None
 390:.\Generated_Source\PSoC4/UART_SPI_UART.c ****     *
 391:.\Generated_Source\PSoC4/UART_SPI_UART.c ****     * Return:
 392:.\Generated_Source\PSoC4/UART_SPI_UART.c ****     *  None
 393:.\Generated_Source\PSoC4/UART_SPI_UART.c ****     *
 394:.\Generated_Source\PSoC4/UART_SPI_UART.c ****     *******************************************************************************/
 395:.\Generated_Source\PSoC4/UART_SPI_UART.c ****     void UART_SpiUartClearTxBuffer(void)
ARM GAS  C:\Users\wmd\AppData\Local\Temp\cc1TEzvH.s 			page 16


 396:.\Generated_Source\PSoC4/UART_SPI_UART.c ****     {
 458              		.loc 1 396 0
 459              		.cfi_startproc
 460 0000 80B5     		push	{r7, lr}
 461              		.cfi_def_cfa_offset 8
 462              		.cfi_offset 7, -8
 463              		.cfi_offset 14, -4
 464 0002 00AF     		add	r7, sp, #0
 465              		.cfi_def_cfa_register 7
 397:.\Generated_Source\PSoC4/UART_SPI_UART.c ****         #if (UART_CHECK_TX_SW_BUFFER)
 398:.\Generated_Source\PSoC4/UART_SPI_UART.c ****         {
 399:.\Generated_Source\PSoC4/UART_SPI_UART.c ****             /* Lock from component interruption */
 400:.\Generated_Source\PSoC4/UART_SPI_UART.c ****             UART_DisableInt();
 466              		.loc 1 400 0
 467 0004 0A20     		mov	r0, #10
 468 0006 FFF7FEFF 		bl	CyIntDisable
 401:.\Generated_Source\PSoC4/UART_SPI_UART.c **** 
 402:.\Generated_Source\PSoC4/UART_SPI_UART.c ****             /* Flush TX software buffer */
 403:.\Generated_Source\PSoC4/UART_SPI_UART.c ****             UART_txBufferHead = UART_txBufferTail;
 469              		.loc 1 403 0
 470 000a 0F4B     		ldr	r3, .L34
 471 000c 1A68     		ldr	r2, [r3]
 472 000e 0F4B     		ldr	r3, .L34+4
 473 0010 1A60     		str	r2, [r3]
 404:.\Generated_Source\PSoC4/UART_SPI_UART.c **** 
 405:.\Generated_Source\PSoC4/UART_SPI_UART.c ****             UART_INTR_TX_MASK_REG &= (uint32) ~UART_INTR_TX_NOT_FULL;
 474              		.loc 1 405 0
 475 0012 0F4B     		ldr	r3, .L34+8
 476 0014 0E4A     		ldr	r2, .L34+8
 477 0016 1268     		ldr	r2, [r2]
 478 0018 0221     		mov	r1, #2
 479 001a 8A43     		bic	r2, r1
 480 001c 1A60     		str	r2, [r3]
 406:.\Generated_Source\PSoC4/UART_SPI_UART.c ****             UART_CLEAR_TX_FIFO;
 481              		.loc 1 406 0
 482 001e 0D4B     		ldr	r3, .L34+12
 483 0020 0C4A     		ldr	r2, .L34+12
 484 0022 1268     		ldr	r2, [r2]
 485 0024 8021     		mov	r1, #128
 486 0026 4902     		lsl	r1, r1, #9
 487 0028 0A43     		orr	r2, r1
 488 002a 1A60     		str	r2, [r3]
 489 002c 094B     		ldr	r3, .L34+12
 490 002e 094A     		ldr	r2, .L34+12
 491 0030 1168     		ldr	r1, [r2]
 492 0032 094A     		ldr	r2, .L34+16
 493 0034 0A40     		and	r2, r1
 494 0036 1A60     		str	r2, [r3]
 407:.\Generated_Source\PSoC4/UART_SPI_UART.c ****             UART_ClearTxInterruptSource(UART_INTR_TX_ALL);
 495              		.loc 1 407 0
 496 0038 084B     		ldr	r3, .L34+20
 497 003a 094A     		ldr	r2, .L34+24
 498 003c 1A60     		str	r2, [r3]
 408:.\Generated_Source\PSoC4/UART_SPI_UART.c **** 
 409:.\Generated_Source\PSoC4/UART_SPI_UART.c ****             /* Release lock */
 410:.\Generated_Source\PSoC4/UART_SPI_UART.c ****             UART_EnableInt();
 499              		.loc 1 410 0
ARM GAS  C:\Users\wmd\AppData\Local\Temp\cc1TEzvH.s 			page 17


 500 003e 0A20     		mov	r0, #10
 501 0040 FFF7FEFF 		bl	CyIntEnable
 411:.\Generated_Source\PSoC4/UART_SPI_UART.c ****         }
 412:.\Generated_Source\PSoC4/UART_SPI_UART.c ****         #else
 413:.\Generated_Source\PSoC4/UART_SPI_UART.c ****         {
 414:.\Generated_Source\PSoC4/UART_SPI_UART.c ****             UART_CLEAR_TX_FIFO;
 415:.\Generated_Source\PSoC4/UART_SPI_UART.c ****         }
 416:.\Generated_Source\PSoC4/UART_SPI_UART.c ****         #endif
 417:.\Generated_Source\PSoC4/UART_SPI_UART.c ****     }
 502              		.loc 1 417 0
 503 0044 BD46     		mov	sp, r7
 504              		@ sp needed
 505 0046 80BD     		pop	{r7, pc}
 506              	.L35:
 507              		.align	2
 508              	.L34:
 509 0048 00000000 		.word	UART_txBufferTail
 510 004c 00000000 		.word	UART_txBufferHead
 511 0050 880F2540 		.word	1076170632
 512 0054 04022540 		.word	1076167172
 513 0058 FFFFFEFF 		.word	-65537
 514 005c 800F2540 		.word	1076170624
 515 0060 F3070000 		.word	2035
 516              		.cfi_endproc
 517              	.LFE8:
 518              		.size	UART_SpiUartClearTxBuffer, .-UART_SpiUartClearTxBuffer
 519              		.section	.text.UART_SpiUartDisableIntRx,"ax",%progbits
 520              		.align	2
 521              		.global	UART_SpiUartDisableIntRx
 522              		.code	16
 523              		.thumb_func
 524              		.type	UART_SpiUartDisableIntRx, %function
 525              	UART_SpiUartDisableIntRx:
 526              	.LFB9:
 418:.\Generated_Source\PSoC4/UART_SPI_UART.c **** 
 419:.\Generated_Source\PSoC4/UART_SPI_UART.c **** #endif /* (UART_TX_DIRECTION) */
 420:.\Generated_Source\PSoC4/UART_SPI_UART.c **** 
 421:.\Generated_Source\PSoC4/UART_SPI_UART.c **** 
 422:.\Generated_Source\PSoC4/UART_SPI_UART.c **** /*******************************************************************************
 423:.\Generated_Source\PSoC4/UART_SPI_UART.c **** * Function Name: UART_SpiUartDisableIntRx
 424:.\Generated_Source\PSoC4/UART_SPI_UART.c **** ********************************************************************************
 425:.\Generated_Source\PSoC4/UART_SPI_UART.c **** *
 426:.\Generated_Source\PSoC4/UART_SPI_UART.c **** * Summary:
 427:.\Generated_Source\PSoC4/UART_SPI_UART.c **** *  Disables the RX interrupt sources.
 428:.\Generated_Source\PSoC4/UART_SPI_UART.c **** *
 429:.\Generated_Source\PSoC4/UART_SPI_UART.c **** * Parameters:
 430:.\Generated_Source\PSoC4/UART_SPI_UART.c **** *  None
 431:.\Generated_Source\PSoC4/UART_SPI_UART.c **** *
 432:.\Generated_Source\PSoC4/UART_SPI_UART.c **** * Return:
 433:.\Generated_Source\PSoC4/UART_SPI_UART.c **** *  Returns the RX interrupt sources enabled before the function call.
 434:.\Generated_Source\PSoC4/UART_SPI_UART.c **** *
 435:.\Generated_Source\PSoC4/UART_SPI_UART.c **** *******************************************************************************/
 436:.\Generated_Source\PSoC4/UART_SPI_UART.c **** uint32 UART_SpiUartDisableIntRx(void)
 437:.\Generated_Source\PSoC4/UART_SPI_UART.c **** {
 527              		.loc 1 437 0
 528              		.cfi_startproc
 529 0000 80B5     		push	{r7, lr}
ARM GAS  C:\Users\wmd\AppData\Local\Temp\cc1TEzvH.s 			page 18


 530              		.cfi_def_cfa_offset 8
 531              		.cfi_offset 7, -8
 532              		.cfi_offset 14, -4
 533 0002 82B0     		sub	sp, sp, #8
 534              		.cfi_def_cfa_offset 16
 535 0004 00AF     		add	r7, sp, #0
 536              		.cfi_def_cfa_register 7
 438:.\Generated_Source\PSoC4/UART_SPI_UART.c ****     uint32 intSource;
 439:.\Generated_Source\PSoC4/UART_SPI_UART.c **** 
 440:.\Generated_Source\PSoC4/UART_SPI_UART.c ****     intSource = UART_GetRxInterruptMode();
 537              		.loc 1 440 0
 538 0006 054B     		ldr	r3, .L38
 539 0008 1B68     		ldr	r3, [r3]
 540 000a 7B60     		str	r3, [r7, #4]
 441:.\Generated_Source\PSoC4/UART_SPI_UART.c **** 
 442:.\Generated_Source\PSoC4/UART_SPI_UART.c ****     UART_SetRxInterruptMode(UART_NO_INTR_SOURCES);
 541              		.loc 1 442 0
 542 000c 034B     		ldr	r3, .L38
 543 000e 0022     		mov	r2, #0
 544 0010 1A60     		str	r2, [r3]
 443:.\Generated_Source\PSoC4/UART_SPI_UART.c **** 
 444:.\Generated_Source\PSoC4/UART_SPI_UART.c ****     return (intSource);
 545              		.loc 1 444 0
 546 0012 7B68     		ldr	r3, [r7, #4]
 445:.\Generated_Source\PSoC4/UART_SPI_UART.c **** }
 547              		.loc 1 445 0
 548 0014 181C     		mov	r0, r3
 549 0016 BD46     		mov	sp, r7
 550 0018 02B0     		add	sp, sp, #8
 551              		@ sp needed
 552 001a 80BD     		pop	{r7, pc}
 553              	.L39:
 554              		.align	2
 555              	.L38:
 556 001c C80F2540 		.word	1076170696
 557              		.cfi_endproc
 558              	.LFE9:
 559              		.size	UART_SpiUartDisableIntRx, .-UART_SpiUartDisableIntRx
 560              		.section	.text.UART_SpiUartDisableIntTx,"ax",%progbits
 561              		.align	2
 562              		.global	UART_SpiUartDisableIntTx
 563              		.code	16
 564              		.thumb_func
 565              		.type	UART_SpiUartDisableIntTx, %function
 566              	UART_SpiUartDisableIntTx:
 567              	.LFB10:
 446:.\Generated_Source\PSoC4/UART_SPI_UART.c **** 
 447:.\Generated_Source\PSoC4/UART_SPI_UART.c **** 
 448:.\Generated_Source\PSoC4/UART_SPI_UART.c **** /*******************************************************************************
 449:.\Generated_Source\PSoC4/UART_SPI_UART.c **** * Function Name: UART_SpiUartDisableIntTx
 450:.\Generated_Source\PSoC4/UART_SPI_UART.c **** ********************************************************************************
 451:.\Generated_Source\PSoC4/UART_SPI_UART.c **** *
 452:.\Generated_Source\PSoC4/UART_SPI_UART.c **** * Summary:
 453:.\Generated_Source\PSoC4/UART_SPI_UART.c **** *  Disables TX interrupt sources.
 454:.\Generated_Source\PSoC4/UART_SPI_UART.c **** *
 455:.\Generated_Source\PSoC4/UART_SPI_UART.c **** * Parameters:
 456:.\Generated_Source\PSoC4/UART_SPI_UART.c **** *  None
ARM GAS  C:\Users\wmd\AppData\Local\Temp\cc1TEzvH.s 			page 19


 457:.\Generated_Source\PSoC4/UART_SPI_UART.c **** *
 458:.\Generated_Source\PSoC4/UART_SPI_UART.c **** * Return:
 459:.\Generated_Source\PSoC4/UART_SPI_UART.c **** *  Returns TX interrupt sources enabled before function call.
 460:.\Generated_Source\PSoC4/UART_SPI_UART.c **** *
 461:.\Generated_Source\PSoC4/UART_SPI_UART.c **** *******************************************************************************/
 462:.\Generated_Source\PSoC4/UART_SPI_UART.c **** uint32 UART_SpiUartDisableIntTx(void)
 463:.\Generated_Source\PSoC4/UART_SPI_UART.c **** {
 568              		.loc 1 463 0
 569              		.cfi_startproc
 570 0000 80B5     		push	{r7, lr}
 571              		.cfi_def_cfa_offset 8
 572              		.cfi_offset 7, -8
 573              		.cfi_offset 14, -4
 574 0002 82B0     		sub	sp, sp, #8
 575              		.cfi_def_cfa_offset 16
 576 0004 00AF     		add	r7, sp, #0
 577              		.cfi_def_cfa_register 7
 464:.\Generated_Source\PSoC4/UART_SPI_UART.c ****     uint32 intSourceMask;
 465:.\Generated_Source\PSoC4/UART_SPI_UART.c **** 
 466:.\Generated_Source\PSoC4/UART_SPI_UART.c ****     intSourceMask = UART_GetTxInterruptMode();
 578              		.loc 1 466 0
 579 0006 054B     		ldr	r3, .L42
 580 0008 1B68     		ldr	r3, [r3]
 581 000a 7B60     		str	r3, [r7, #4]
 467:.\Generated_Source\PSoC4/UART_SPI_UART.c **** 
 468:.\Generated_Source\PSoC4/UART_SPI_UART.c ****     UART_SetTxInterruptMode(UART_NO_INTR_SOURCES);
 582              		.loc 1 468 0
 583 000c 034B     		ldr	r3, .L42
 584 000e 0022     		mov	r2, #0
 585 0010 1A60     		str	r2, [r3]
 469:.\Generated_Source\PSoC4/UART_SPI_UART.c **** 
 470:.\Generated_Source\PSoC4/UART_SPI_UART.c ****     return (intSourceMask);
 586              		.loc 1 470 0
 587 0012 7B68     		ldr	r3, [r7, #4]
 471:.\Generated_Source\PSoC4/UART_SPI_UART.c **** }
 588              		.loc 1 471 0
 589 0014 181C     		mov	r0, r3
 590 0016 BD46     		mov	sp, r7
 591 0018 02B0     		add	sp, sp, #8
 592              		@ sp needed
 593 001a 80BD     		pop	{r7, pc}
 594              	.L43:
 595              		.align	2
 596              	.L42:
 597 001c 880F2540 		.word	1076170632
 598              		.cfi_endproc
 599              	.LFE10:
 600              		.size	UART_SpiUartDisableIntTx, .-UART_SpiUartDisableIntTx
 601              		.text
 602              	.Letext0:
 603              		.file 2 "Generated_Source\\PSoC4/cytypes.h"