ARM GAS  C:\Users\wmd\AppData\Local\Temp\cc3kXUb7.s 			page 1


   1              		.cpu cortex-m0
   2              		.fpu softvfp
   3              		.eabi_attribute 20, 1
   4              		.eabi_attribute 21, 1
   5              		.eabi_attribute 23, 3
   6              		.eabi_attribute 24, 1
   7              		.eabi_attribute 25, 1
   8              		.eabi_attribute 26, 1
   9              		.eabi_attribute 30, 6
  10              		.eabi_attribute 34, 0
  11              		.eabi_attribute 18, 4
  12              		.code	16
  13              		.file	"UART_SPI_UART_INT.c"
  14              		.text
  15              	.Ltext0:
  16              		.cfi_sections	.debug_frame
  17              		.section	.text.UART_SPI_UART_ISR,"ax",%progbits
  18              		.align	2
  19              		.global	UART_SPI_UART_ISR
  20              		.code	16
  21              		.thumb_func
  22              		.type	UART_SPI_UART_ISR, %function
  23              	UART_SPI_UART_ISR:
  24              	.LFB2:
  25              		.file 1 ".\\Generated_Source\\PSoC4\\UART_SPI_UART_INT.c"
   1:.\Generated_Source\PSoC4/UART_SPI_UART_INT.c **** /*******************************************************************************
   2:.\Generated_Source\PSoC4/UART_SPI_UART_INT.c **** * File Name: UART_SPI_UART_INT.c
   3:.\Generated_Source\PSoC4/UART_SPI_UART_INT.c **** * Version 3.0
   4:.\Generated_Source\PSoC4/UART_SPI_UART_INT.c **** *
   5:.\Generated_Source\PSoC4/UART_SPI_UART_INT.c **** * Description:
   6:.\Generated_Source\PSoC4/UART_SPI_UART_INT.c **** *  This file provides the source code to the Interrupt Service Routine for
   7:.\Generated_Source\PSoC4/UART_SPI_UART_INT.c **** *  the SCB Component in SPI and UART modes.
   8:.\Generated_Source\PSoC4/UART_SPI_UART_INT.c **** *
   9:.\Generated_Source\PSoC4/UART_SPI_UART_INT.c **** * Note:
  10:.\Generated_Source\PSoC4/UART_SPI_UART_INT.c **** *
  11:.\Generated_Source\PSoC4/UART_SPI_UART_INT.c **** ********************************************************************************
  12:.\Generated_Source\PSoC4/UART_SPI_UART_INT.c **** * Copyright 2013-2015, Cypress Semiconductor Corporation.  All rights reserved.
  13:.\Generated_Source\PSoC4/UART_SPI_UART_INT.c **** * You may use this file only in accordance with the license, terms, conditions,
  14:.\Generated_Source\PSoC4/UART_SPI_UART_INT.c **** * disclaimers, and limitations in the end user license agreement accompanying
  15:.\Generated_Source\PSoC4/UART_SPI_UART_INT.c **** * the software package with which this file was provided.
  16:.\Generated_Source\PSoC4/UART_SPI_UART_INT.c **** *******************************************************************************/
  17:.\Generated_Source\PSoC4/UART_SPI_UART_INT.c **** 
  18:.\Generated_Source\PSoC4/UART_SPI_UART_INT.c **** #include "UART_PVT.h"
  19:.\Generated_Source\PSoC4/UART_SPI_UART_INT.c **** #include "UART_SPI_UART_PVT.h"
  20:.\Generated_Source\PSoC4/UART_SPI_UART_INT.c **** 
  21:.\Generated_Source\PSoC4/UART_SPI_UART_INT.c **** #if (UART_SCB_IRQ_INTERNAL)
  22:.\Generated_Source\PSoC4/UART_SPI_UART_INT.c **** /*******************************************************************************
  23:.\Generated_Source\PSoC4/UART_SPI_UART_INT.c **** * Function Name: UART_SPI_UART_ISR
  24:.\Generated_Source\PSoC4/UART_SPI_UART_INT.c **** ********************************************************************************
  25:.\Generated_Source\PSoC4/UART_SPI_UART_INT.c **** *
  26:.\Generated_Source\PSoC4/UART_SPI_UART_INT.c **** * Summary:
  27:.\Generated_Source\PSoC4/UART_SPI_UART_INT.c **** *  Handles the Interrupt Service Routine for the SCB SPI or UART modes.
  28:.\Generated_Source\PSoC4/UART_SPI_UART_INT.c **** *
  29:.\Generated_Source\PSoC4/UART_SPI_UART_INT.c **** * Parameters:
  30:.\Generated_Source\PSoC4/UART_SPI_UART_INT.c **** *  None
  31:.\Generated_Source\PSoC4/UART_SPI_UART_INT.c **** *
  32:.\Generated_Source\PSoC4/UART_SPI_UART_INT.c **** * Return:
ARM GAS  C:\Users\wmd\AppData\Local\Temp\cc3kXUb7.s 			page 2


  33:.\Generated_Source\PSoC4/UART_SPI_UART_INT.c **** *  None
  34:.\Generated_Source\PSoC4/UART_SPI_UART_INT.c **** *
  35:.\Generated_Source\PSoC4/UART_SPI_UART_INT.c **** *******************************************************************************/
  36:.\Generated_Source\PSoC4/UART_SPI_UART_INT.c **** CY_ISR(UART_SPI_UART_ISR)
  37:.\Generated_Source\PSoC4/UART_SPI_UART_INT.c **** {
  26              		.loc 1 37 0
  27              		.cfi_startproc
  28 0000 80B5     		push	{r7, lr}
  29              		.cfi_def_cfa_offset 8
  30              		.cfi_offset 7, -8
  31              		.cfi_offset 14, -4
  32 0002 82B0     		sub	sp, sp, #8
  33              		.cfi_def_cfa_offset 16
  34 0004 00AF     		add	r7, sp, #0
  35              		.cfi_def_cfa_register 7
  38:.\Generated_Source\PSoC4/UART_SPI_UART_INT.c **** #if (UART_INTERNAL_RX_SW_BUFFER_CONST)
  39:.\Generated_Source\PSoC4/UART_SPI_UART_INT.c ****     uint32 locHead;
  40:.\Generated_Source\PSoC4/UART_SPI_UART_INT.c **** #endif /* (UART_INTERNAL_RX_SW_BUFFER_CONST) */
  41:.\Generated_Source\PSoC4/UART_SPI_UART_INT.c **** 
  42:.\Generated_Source\PSoC4/UART_SPI_UART_INT.c **** #if (UART_INTERNAL_TX_SW_BUFFER_CONST)
  43:.\Generated_Source\PSoC4/UART_SPI_UART_INT.c ****     uint32 locTail;
  44:.\Generated_Source\PSoC4/UART_SPI_UART_INT.c **** #endif /* (UART_INTERNAL_TX_SW_BUFFER_CONST) */
  45:.\Generated_Source\PSoC4/UART_SPI_UART_INT.c **** 
  46:.\Generated_Source\PSoC4/UART_SPI_UART_INT.c ****     if (NULL != UART_customIntrHandler)
  36              		.loc 1 46 0
  37 0006 334B     		ldr	r3, .L14
  38 0008 1B68     		ldr	r3, [r3]
  39 000a 002B     		cmp	r3, #0
  40 000c 02D0     		beq	.L2
  47:.\Generated_Source\PSoC4/UART_SPI_UART_INT.c ****     {
  48:.\Generated_Source\PSoC4/UART_SPI_UART_INT.c ****         UART_customIntrHandler();
  41              		.loc 1 48 0
  42 000e 314B     		ldr	r3, .L14
  43 0010 1B68     		ldr	r3, [r3]
  44 0012 9847     		blx	r3
  45              	.L2:
  49:.\Generated_Source\PSoC4/UART_SPI_UART_INT.c ****     }
  50:.\Generated_Source\PSoC4/UART_SPI_UART_INT.c **** 
  51:.\Generated_Source\PSoC4/UART_SPI_UART_INT.c ****     #if (UART_CHECK_SPI_WAKE_ENABLE)
  52:.\Generated_Source\PSoC4/UART_SPI_UART_INT.c ****     {
  53:.\Generated_Source\PSoC4/UART_SPI_UART_INT.c ****         /* Clear SPI wakeup source */
  54:.\Generated_Source\PSoC4/UART_SPI_UART_INT.c ****         UART_ClearSpiExtClkInterruptSource(UART_INTR_SPI_EC_WAKE_UP);
  55:.\Generated_Source\PSoC4/UART_SPI_UART_INT.c ****     }
  56:.\Generated_Source\PSoC4/UART_SPI_UART_INT.c ****     #endif
  57:.\Generated_Source\PSoC4/UART_SPI_UART_INT.c **** 
  58:.\Generated_Source\PSoC4/UART_SPI_UART_INT.c ****     #if (UART_CHECK_RX_SW_BUFFER)
  59:.\Generated_Source\PSoC4/UART_SPI_UART_INT.c ****     {
  60:.\Generated_Source\PSoC4/UART_SPI_UART_INT.c ****         if (UART_CHECK_INTR_RX_MASKED(UART_INTR_RX_NOT_EMPTY))
  46              		.loc 1 60 0
  47 0014 304B     		ldr	r3, .L14+4
  48 0016 1A68     		ldr	r2, [r3]
  49 0018 0423     		mov	r3, #4
  50 001a 1340     		and	r3, r2
  51 001c 26D0     		beq	.L3
  52              	.L7:
  61:.\Generated_Source\PSoC4/UART_SPI_UART_INT.c ****         {
  62:.\Generated_Source\PSoC4/UART_SPI_UART_INT.c ****             do
ARM GAS  C:\Users\wmd\AppData\Local\Temp\cc3kXUb7.s 			page 3


  63:.\Generated_Source\PSoC4/UART_SPI_UART_INT.c ****             {
  64:.\Generated_Source\PSoC4/UART_SPI_UART_INT.c ****                 /* Move local head index */
  65:.\Generated_Source\PSoC4/UART_SPI_UART_INT.c ****                 locHead = (UART_rxBufferHead + 1u);
  53              		.loc 1 65 0
  54 001e 2F4B     		ldr	r3, .L14+8
  55 0020 1B68     		ldr	r3, [r3]
  56 0022 0133     		add	r3, r3, #1
  57 0024 7B60     		str	r3, [r7, #4]
  66:.\Generated_Source\PSoC4/UART_SPI_UART_INT.c **** 
  67:.\Generated_Source\PSoC4/UART_SPI_UART_INT.c ****                 /* Adjust local head index */
  68:.\Generated_Source\PSoC4/UART_SPI_UART_INT.c ****                 if (UART_INTERNAL_RX_BUFFER_SIZE == locHead)
  58              		.loc 1 68 0
  59 0026 7A68     		ldr	r2, [r7, #4]
  60 0028 2D4B     		ldr	r3, .L14+12
  61 002a 9A42     		cmp	r2, r3
  62 002c 01D1     		bne	.L4
  69:.\Generated_Source\PSoC4/UART_SPI_UART_INT.c ****                 {
  70:.\Generated_Source\PSoC4/UART_SPI_UART_INT.c ****                     locHead = 0u;
  63              		.loc 1 70 0
  64 002e 0023     		mov	r3, #0
  65 0030 7B60     		str	r3, [r7, #4]
  66              	.L4:
  71:.\Generated_Source\PSoC4/UART_SPI_UART_INT.c ****                 }
  72:.\Generated_Source\PSoC4/UART_SPI_UART_INT.c **** 
  73:.\Generated_Source\PSoC4/UART_SPI_UART_INT.c ****                 if (locHead == UART_rxBufferTail)
  67              		.loc 1 73 0
  68 0032 2C4B     		ldr	r3, .L14+16
  69 0034 1B68     		ldr	r3, [r3]
  70 0036 7A68     		ldr	r2, [r7, #4]
  71 0038 9A42     		cmp	r2, r3
  72 003a 05D1     		bne	.L5
  74:.\Generated_Source\PSoC4/UART_SPI_UART_INT.c ****                 {
  75:.\Generated_Source\PSoC4/UART_SPI_UART_INT.c ****                     #if (UART_CHECK_UART_RTS_CONTROL_FLOW)
  76:.\Generated_Source\PSoC4/UART_SPI_UART_INT.c ****                     {
  77:.\Generated_Source\PSoC4/UART_SPI_UART_INT.c ****                         /* There is no space in the software buffer - disable the
  78:.\Generated_Source\PSoC4/UART_SPI_UART_INT.c ****                         * RX Not Empty interrupt source. The data elements are
  79:.\Generated_Source\PSoC4/UART_SPI_UART_INT.c ****                         * still being received into the RX FIFO until the RTS signal
  80:.\Generated_Source\PSoC4/UART_SPI_UART_INT.c ****                         * stops the transmitter. After the data element is read from the
  81:.\Generated_Source\PSoC4/UART_SPI_UART_INT.c ****                         * buffer, the RX Not Empty interrupt source is enabled to
  82:.\Generated_Source\PSoC4/UART_SPI_UART_INT.c ****                         * move the next data element in the software buffer.
  83:.\Generated_Source\PSoC4/UART_SPI_UART_INT.c ****                         */
  84:.\Generated_Source\PSoC4/UART_SPI_UART_INT.c ****                         UART_INTR_RX_MASK_REG &= ~UART_INTR_RX_NOT_EMPTY;
  85:.\Generated_Source\PSoC4/UART_SPI_UART_INT.c ****                         break;
  86:.\Generated_Source\PSoC4/UART_SPI_UART_INT.c ****                     }
  87:.\Generated_Source\PSoC4/UART_SPI_UART_INT.c ****                     #else
  88:.\Generated_Source\PSoC4/UART_SPI_UART_INT.c ****                     {
  89:.\Generated_Source\PSoC4/UART_SPI_UART_INT.c ****                         /* Overflow: through away received data element */
  90:.\Generated_Source\PSoC4/UART_SPI_UART_INT.c ****                         (void) UART_RX_FIFO_RD_REG;
  73              		.loc 1 90 0
  74 003c 2A4B     		ldr	r3, .L14+20
  75 003e 1B68     		ldr	r3, [r3]
  91:.\Generated_Source\PSoC4/UART_SPI_UART_INT.c ****                         UART_rxBufferOverflow = (uint8) UART_INTR_RX_OVERFLOW;
  76              		.loc 1 91 0
  77 0040 2A4B     		ldr	r3, .L14+24
  78 0042 2022     		mov	r2, #32
  79 0044 1A70     		strb	r2, [r3]
  80 0046 09E0     		b	.L6
ARM GAS  C:\Users\wmd\AppData\Local\Temp\cc3kXUb7.s 			page 4


  81              	.L5:
  92:.\Generated_Source\PSoC4/UART_SPI_UART_INT.c ****                     }
  93:.\Generated_Source\PSoC4/UART_SPI_UART_INT.c ****                     #endif
  94:.\Generated_Source\PSoC4/UART_SPI_UART_INT.c ****                 }
  95:.\Generated_Source\PSoC4/UART_SPI_UART_INT.c ****                 else
  96:.\Generated_Source\PSoC4/UART_SPI_UART_INT.c ****                 {
  97:.\Generated_Source\PSoC4/UART_SPI_UART_INT.c ****                     /* Store received data */
  98:.\Generated_Source\PSoC4/UART_SPI_UART_INT.c ****                     UART_PutWordInRxBuffer(locHead, UART_RX_FIFO_RD_REG);
  82              		.loc 1 98 0
  83 0048 274B     		ldr	r3, .L14+20
  84 004a 1B68     		ldr	r3, [r3]
  85 004c DAB2     		uxtb	r2, r3
  86 004e 2849     		ldr	r1, .L14+28
  87 0050 7B68     		ldr	r3, [r7, #4]
  88 0052 CB18     		add	r3, r1, r3
  89 0054 1A70     		strb	r2, [r3]
  99:.\Generated_Source\PSoC4/UART_SPI_UART_INT.c **** 
 100:.\Generated_Source\PSoC4/UART_SPI_UART_INT.c ****                     /* Move head index */
 101:.\Generated_Source\PSoC4/UART_SPI_UART_INT.c ****                     UART_rxBufferHead = locHead;
  90              		.loc 1 101 0
  91 0056 214B     		ldr	r3, .L14+8
  92 0058 7A68     		ldr	r2, [r7, #4]
  93 005a 1A60     		str	r2, [r3]
  94              	.L6:
 102:.\Generated_Source\PSoC4/UART_SPI_UART_INT.c ****                 }
 103:.\Generated_Source\PSoC4/UART_SPI_UART_INT.c ****             }
 104:.\Generated_Source\PSoC4/UART_SPI_UART_INT.c ****             while(0u != UART_GET_RX_FIFO_ENTRIES);
  95              		.loc 1 104 0
  96 005c 254B     		ldr	r3, .L14+32
  97 005e 1A68     		ldr	r2, [r3]
  98 0060 1F23     		mov	r3, #31
  99 0062 1340     		and	r3, r2
 100 0064 DBD1     		bne	.L7
 105:.\Generated_Source\PSoC4/UART_SPI_UART_INT.c **** 
 106:.\Generated_Source\PSoC4/UART_SPI_UART_INT.c ****             UART_ClearRxInterruptSource(UART_INTR_RX_NOT_EMPTY);
 101              		.loc 1 106 0
 102 0066 244B     		ldr	r3, .L14+36
 103 0068 0422     		mov	r2, #4
 104 006a 1A60     		str	r2, [r3]
 105              	.L3:
 107:.\Generated_Source\PSoC4/UART_SPI_UART_INT.c ****         }
 108:.\Generated_Source\PSoC4/UART_SPI_UART_INT.c ****     }
 109:.\Generated_Source\PSoC4/UART_SPI_UART_INT.c ****     #endif
 110:.\Generated_Source\PSoC4/UART_SPI_UART_INT.c **** 
 111:.\Generated_Source\PSoC4/UART_SPI_UART_INT.c **** 
 112:.\Generated_Source\PSoC4/UART_SPI_UART_INT.c ****     #if (UART_CHECK_TX_SW_BUFFER)
 113:.\Generated_Source\PSoC4/UART_SPI_UART_INT.c ****     {
 114:.\Generated_Source\PSoC4/UART_SPI_UART_INT.c ****         if (UART_CHECK_INTR_TX_MASKED(UART_INTR_TX_NOT_FULL))
 106              		.loc 1 114 0
 107 006c 234B     		ldr	r3, .L14+40
 108 006e 1A68     		ldr	r2, [r3]
 109 0070 0223     		mov	r3, #2
 110 0072 1340     		and	r3, r2
 111 0074 2BD0     		beq	.L1
 112              	.L13:
 115:.\Generated_Source\PSoC4/UART_SPI_UART_INT.c ****         {
 116:.\Generated_Source\PSoC4/UART_SPI_UART_INT.c ****             do
ARM GAS  C:\Users\wmd\AppData\Local\Temp\cc3kXUb7.s 			page 5


 117:.\Generated_Source\PSoC4/UART_SPI_UART_INT.c ****             {
 118:.\Generated_Source\PSoC4/UART_SPI_UART_INT.c ****                 /* Check for room in TX software buffer */
 119:.\Generated_Source\PSoC4/UART_SPI_UART_INT.c ****                 if (UART_txBufferHead != UART_txBufferTail)
 113              		.loc 1 119 0
 114 0076 224B     		ldr	r3, .L14+44
 115 0078 1A68     		ldr	r2, [r3]
 116 007a 224B     		ldr	r3, .L14+48
 117 007c 1B68     		ldr	r3, [r3]
 118 007e 9A42     		cmp	r2, r3
 119 0080 1BD0     		beq	.L9
 120:.\Generated_Source\PSoC4/UART_SPI_UART_INT.c ****                 {
 121:.\Generated_Source\PSoC4/UART_SPI_UART_INT.c ****                     /* Move local tail index */
 122:.\Generated_Source\PSoC4/UART_SPI_UART_INT.c ****                     locTail = (UART_txBufferTail + 1u);
 120              		.loc 1 122 0
 121 0082 204B     		ldr	r3, .L14+48
 122 0084 1B68     		ldr	r3, [r3]
 123 0086 0133     		add	r3, r3, #1
 124 0088 3B60     		str	r3, [r7]
 123:.\Generated_Source\PSoC4/UART_SPI_UART_INT.c **** 
 124:.\Generated_Source\PSoC4/UART_SPI_UART_INT.c ****                     /* Adjust local tail index */
 125:.\Generated_Source\PSoC4/UART_SPI_UART_INT.c ****                     if (UART_TX_BUFFER_SIZE == locTail)
 125              		.loc 1 125 0
 126 008a 3A68     		ldr	r2, [r7]
 127 008c 8023     		mov	r3, #128
 128 008e DB00     		lsl	r3, r3, #3
 129 0090 9A42     		cmp	r2, r3
 130 0092 01D1     		bne	.L10
 126:.\Generated_Source\PSoC4/UART_SPI_UART_INT.c ****                     {
 127:.\Generated_Source\PSoC4/UART_SPI_UART_INT.c ****                         locTail = 0u;
 131              		.loc 1 127 0
 132 0094 0023     		mov	r3, #0
 133 0096 3B60     		str	r3, [r7]
 134              	.L10:
 128:.\Generated_Source\PSoC4/UART_SPI_UART_INT.c ****                     }
 129:.\Generated_Source\PSoC4/UART_SPI_UART_INT.c **** 
 130:.\Generated_Source\PSoC4/UART_SPI_UART_INT.c ****                     /* Put data into TX FIFO */
 131:.\Generated_Source\PSoC4/UART_SPI_UART_INT.c ****                     UART_TX_FIFO_WR_REG = UART_GetWordFromTxBuffer(locTail);
 135              		.loc 1 131 0
 136 0098 1B4B     		ldr	r3, .L14+52
 137 009a 1C49     		ldr	r1, .L14+56
 138 009c 3A68     		ldr	r2, [r7]
 139 009e 8A18     		add	r2, r1, r2
 140 00a0 1278     		ldrb	r2, [r2]
 141 00a2 D2B2     		uxtb	r2, r2
 142 00a4 1A60     		str	r2, [r3]
 132:.\Generated_Source\PSoC4/UART_SPI_UART_INT.c **** 
 133:.\Generated_Source\PSoC4/UART_SPI_UART_INT.c ****                     /* Move tail index */
 134:.\Generated_Source\PSoC4/UART_SPI_UART_INT.c ****                     UART_txBufferTail = locTail;
 143              		.loc 1 134 0
 144 00a6 174B     		ldr	r3, .L14+48
 145 00a8 3A68     		ldr	r2, [r7]
 146 00aa 1A60     		str	r2, [r3]
 135:.\Generated_Source\PSoC4/UART_SPI_UART_INT.c ****                 }
 136:.\Generated_Source\PSoC4/UART_SPI_UART_INT.c ****                 else
 137:.\Generated_Source\PSoC4/UART_SPI_UART_INT.c ****                 {
 138:.\Generated_Source\PSoC4/UART_SPI_UART_INT.c ****                     /* TX software buffer is empty: complete transfer */
 139:.\Generated_Source\PSoC4/UART_SPI_UART_INT.c ****                     UART_DISABLE_INTR_TX(UART_INTR_TX_NOT_FULL);
ARM GAS  C:\Users\wmd\AppData\Local\Temp\cc3kXUb7.s 			page 6


 140:.\Generated_Source\PSoC4/UART_SPI_UART_INT.c ****                     break;
 141:.\Generated_Source\PSoC4/UART_SPI_UART_INT.c ****                 }
 142:.\Generated_Source\PSoC4/UART_SPI_UART_INT.c ****             }
 143:.\Generated_Source\PSoC4/UART_SPI_UART_INT.c ****             while (UART_SPI_UART_FIFO_SIZE != UART_GET_TX_FIFO_ENTRIES);
 147              		.loc 1 143 0
 148 00ac 184B     		ldr	r3, .L14+60
 149 00ae 1A68     		ldr	r2, [r3]
 150 00b0 1F23     		mov	r3, #31
 151 00b2 1340     		and	r3, r2
 152 00b4 082B     		cmp	r3, #8
 153 00b6 DED1     		bne	.L13
 154 00b8 06E0     		b	.L12
 155              	.L9:
 139:.\Generated_Source\PSoC4/UART_SPI_UART_INT.c ****                     UART_DISABLE_INTR_TX(UART_INTR_TX_NOT_FULL);
 156              		.loc 1 139 0
 157 00ba 164B     		ldr	r3, .L14+64
 158 00bc 154A     		ldr	r2, .L14+64
 159 00be 1268     		ldr	r2, [r2]
 160 00c0 0221     		mov	r1, #2
 161 00c2 8A43     		bic	r2, r1
 162 00c4 1A60     		str	r2, [r3]
 140:.\Generated_Source\PSoC4/UART_SPI_UART_INT.c ****                     break;
 163              		.loc 1 140 0
 164 00c6 C046     		mov	r8, r8
 165              	.L12:
 144:.\Generated_Source\PSoC4/UART_SPI_UART_INT.c **** 
 145:.\Generated_Source\PSoC4/UART_SPI_UART_INT.c ****             UART_ClearTxInterruptSource(UART_INTR_TX_NOT_FULL);
 166              		.loc 1 145 0
 167 00c8 134B     		ldr	r3, .L14+68
 168 00ca 0222     		mov	r2, #2
 169 00cc 1A60     		str	r2, [r3]
 170              	.L1:
 146:.\Generated_Source\PSoC4/UART_SPI_UART_INT.c ****         }
 147:.\Generated_Source\PSoC4/UART_SPI_UART_INT.c ****     }
 148:.\Generated_Source\PSoC4/UART_SPI_UART_INT.c ****     #endif
 149:.\Generated_Source\PSoC4/UART_SPI_UART_INT.c **** }
 171              		.loc 1 149 0
 172 00ce BD46     		mov	sp, r7
 173 00d0 02B0     		add	sp, sp, #8
 174              		@ sp needed
 175 00d2 80BD     		pop	{r7, pc}
 176              	.L15:
 177              		.align	2
 178              	.L14:
 179 00d4 00000000 		.word	UART_customIntrHandler
 180 00d8 CC0F2540 		.word	1076170700
 181 00dc 00000000 		.word	UART_rxBufferHead
 182 00e0 01080000 		.word	2049
 183 00e4 00000000 		.word	UART_rxBufferTail
 184 00e8 40032540 		.word	1076167488
 185 00ec 00000000 		.word	UART_rxBufferOverflow
 186 00f0 00000000 		.word	UART_rxBufferInternal
 187 00f4 08032540 		.word	1076167432
 188 00f8 C00F2540 		.word	1076170688
 189 00fc 8C0F2540 		.word	1076170636
 190 0100 00000000 		.word	UART_txBufferHead
 191 0104 00000000 		.word	UART_txBufferTail
ARM GAS  C:\Users\wmd\AppData\Local\Temp\cc3kXUb7.s 			page 7


 192 0108 40022540 		.word	1076167232
 193 010c 00000000 		.word	UART_txBufferInternal
 194 0110 08022540 		.word	1076167176
 195 0114 880F2540 		.word	1076170632
 196 0118 800F2540 		.word	1076170624
 197              		.cfi_endproc
 198              	.LFE2:
 199              		.size	UART_SPI_UART_ISR, .-UART_SPI_UART_ISR
 200              		.text
 201              	.Letext0:
 202              		.file 2 "Generated_Source\\PSoC4/cytypes.h"
 203              		.file 3 ".\\Generated_Source\\PSoC4\\UART_PVT.h"
 204              		.file 4 ".\\Generated_Source\\PSoC4\\UART_SPI_UART_PVT.h"